

Microchip MPLAB XC8 Assembler V2.10 build 88905656 
                                                                                               Sat Mar 07 01:19:08 2020

Microchip MPLAB XC8 C Compiler v2.10 (Free license) build 20190730164152 Og1 
     1                           	processor	18F4550
     2                           	fnconf	rparam,??,?,0
     3                           	opt	pw 120
     4                           	opt	flic
     5                           	psect	idataCOMRAM,global,class=CODE,delta=1,noexec
     6                           	psect	cinit,global,reloc=2,class=CODE,delta=1
     7                           	psect	bssCOMRAM,global,class=COMRAM,space=1,delta=1,noexec
     8                           	psect	dataCOMRAM,global,class=COMRAM,space=1,delta=1,noexec
     9                           	psect	bssBANK0,global,class=BANK0,space=1,delta=1,lowdata,noexec
    10                           	psect	bssBANK1,global,class=BANK1,space=1,delta=1,lowdata,noexec
    11                           	psect	cstackBANK1,global,class=BANK1,space=1,delta=1,noexec
    12                           	psect	cstackBANK0,global,class=BANK0,space=1,delta=1,noexec
    13                           	psect	cstackCOMRAM,global,class=COMRAM,space=1,delta=1,noexec
    14                           	psect	text0,global,reloc=2,class=CODE,delta=1
    15                           	psect	text1,global,reloc=2,class=CODE,delta=1
    16                           	psect	text2,global,reloc=2,class=CODE,delta=1
    17                           	psect	text3,global,reloc=2,class=CODE,delta=1
    18                           	psect	text4,global,reloc=2,class=CODE,delta=1
    19                           	psect	text5,global,reloc=2,class=CODE,delta=1
    20                           	psect	text6,global,reloc=2,class=CODE,delta=1
    21                           	psect	text7,global,reloc=2,class=CODE,delta=1
    22                           	psect	text8,global,reloc=2,class=CODE,delta=1
    23                           	psect	text9,global,reloc=2,class=CODE,delta=1
    24                           	psect	text10,global,reloc=2,class=CODE,delta=1
    25                           	psect	text11,global,reloc=2,class=CODE,delta=1
    26                           	psect	text12,global,reloc=2,class=CODE,delta=1
    27                           	psect	text13,global,reloc=2,class=CODE,delta=1
    28                           	psect	intcode,global,reloc=2,class=CODE,delta=1
    29                           	psect	intcode_body,global,reloc=2,class=CODE,delta=1
    30                           	psect	text15,global,reloc=2,class=CODE,delta=1
    31                           	psect	text16,global,reloc=2,class=CODE,delta=1,group=1
    32                           	psect	text17,global,reloc=2,class=CODE,delta=1
    33                           	psect	text18,global,reloc=2,class=CODE,delta=1,group=1
    34                           	psect	text19,global,reloc=2,class=CODE,delta=1
    35                           	psect	text20,global,reloc=2,class=CODE,delta=1
    36                           	psect	text21,global,reloc=2,class=CODE,delta=1
    37                           	psect	text22,global,reloc=2,class=CODE,delta=1
    38                           	psect	text23,global,reloc=2,class=CODE,delta=1
    39                           	psect	intsave_regs,global,class=BIGRAM,space=1,delta=1,noexec
    40                           	psect	rparam,global,class=COMRAM,space=1,delta=1,noexec
    41                           	psect	temp,global,ovrld,common,class=COMRAM,space=1,delta=1
    42  0000                     
    43                           ; Version 2.10
    44                           ; Generated 31/07/2019 GMT
    45                           ; 
    46                           ; Copyright © 2019, Microchip Technology Inc. and its subsidiaries ("Microchip")
    47                           ; All rights reserved.
    48                           ; 
    49                           ; This software is developed by Microchip Technology Inc. and its subsidiaries ("Microch
      +                          ip").
    50                           ; 
    51                           ; Redistribution and use in source and binary forms, with or without modification, are
    52                           ; permitted provided that the following conditions are met:
    53                           ; 
    54                           ;     1. Redistributions of source code must retain the above copyright notice, this lis
      +                          t of
    55                           ;        conditions and the following disclaimer.
    56                           ; 
    57                           ;     2. Redistributions in binary form must reproduce the above copyright notice, this 
      +                          list
    58                           ;        of conditions and the following disclaimer in the documentation and/or other
    59                           ;        materials provided with the distribution.
    60                           ; 
    61                           ;     3. Microchip's name may not be used to endorse or promote products derived from th
      +                          is
    62                           ;        software without specific prior written permission.
    63                           ; 
    64                           ; THIS SOFTWARE IS PROVIDED BY MICROCHIP "AS IS" AND ANY EXPRESS OR IMPLIED WARRANTIES,
    65                           ; INCLUDING, BUT NOT LIMITED TO, THE IMPLIED WARRANTIES OF MERCHANTABILITY AND FITNESS F
      +                          OR
    66                           ; PURPOSE ARE DISCLAIMED.  IN NO EVENT SHALL MICROCHIP BE LIABLE FOR ANY DIRECT, INDIREC
      +                          T,
    67                           ; INCIDENTAL, SPECIAL, EXEMPLARY, OR CONSEQUENTIAL DAMAGES (INCLUDING BUT NOT LIMITED TO
    68                           ; PROCUREMENT OF SUBSTITUTE GOODS OR SERVICES; LOSS OF USE, DATA OR PROFITS; OR BUSINESS
    69                           ; INTERRUPTION) HOWSOEVER CAUSED AND ON ANY THEORY OF LIABILITY, WHETHER IN CONTRACT, ST
      +                          RICT
    70                           ; LIABILITY, OR TORT (INCLUDING NEGLIGENCE OR OTHERWISE) ARISING IN ANY WAY OUT OF THE U
      +                          SE OF
    71                           ; THIS SOFTWARE, EVEN IF ADVISED OF THE POSSIBILITY OF SUCH DAMAGE.
    72                           ; 
    73                           ; 
    74                           ; Code-generator required, PIC18F4550 Definitions
    75                           ; 
    76                           ; SFR Addresses
    77  0000                     
    78                           	psect	idataCOMRAM
    79  00167E                     __pidataCOMRAM:
    80                           	opt callstack 0
    81                           
    82                           ;initializer for LCD_Init_Custom_Sym@F3257
    83  00167E  00                 	db	0
    84  00167F  00                 	db	0
    85  001680  00                 	db	0
    86  001681  00                 	db	0
    87  001682  00                 	db	0
    88  001683  F8                 	db	248
    89  001684  F8                 	db	248
    90  001685  00                 	db	0
    91                           
    92                           ;initializer for _lines_offset_adresses
    93  001686  00                 	db	0
    94  001687  40                 	db	64
    95  0000                     _TMR0	set	4054
    96  0000                     _PORTE	set	3972
    97  0000                     _TRISA	set	3986
    98  0000                     _PORTC	set	3970
    99  0000                     _PORTB	set	3969
   100  0000                     _PORTD	set	3971
   101  0000                     _TRISE	set	3990
   102  0000                     _TRISD	set	3989
   103  0000                     _TRISC	set	3988
   104  0000                     _TRISB	set	3987
   105  0000                     _RDPU	set	31783
   106  0000                     _GIE	set	32663
   107  0000                     _TMR0IE	set	32661
   108  0000                     _TMR0IF	set	32658
   109  0000                     _TMR0ON	set	32431
   110  0000                     _T08BIT	set	32430
   111  0000                     _T0CS	set	32429
   112  0000                     _T0PS0	set	32424
   113  0000                     _T0PS1	set	32425
   114  0000                     _T0PS2	set	32426
   115  0000                     _PSA	set	32427
   116                           
   117                           ; #config settings
   118  0000                     
   119                           	psect	cinit
   120  0014C2                     __pcinit:
   121                           	opt callstack 0
   122  0014C2                     start_initialization:
   123                           	opt callstack 0
   124  0014C2                     __initialization:
   125                           	opt callstack 0
   126                           
   127                           ; Initialize objects allocated to COMRAM (10 bytes)
   128                           ; load TBLPTR registers with __pidataCOMRAM
   129  0014C2  0E7E               	movlw	low __pidataCOMRAM
   130  0014C4  6EF6               	movwf	tblptrl,c
   131  0014C6  0E16               	movlw	high __pidataCOMRAM
   132  0014C8  6EF7               	movwf	tblptrh,c
   133  0014CA  0E00               	movlw	low (__pidataCOMRAM shr (0+16))
   134  0014CC  6EF8               	movwf	tblptru,c
   135  0014CE  EE00  F03B         	lfsr	0,__pdataCOMRAM
   136  0014D2  EE10 F00A          	lfsr	1,10
   137  0014D6                     copy_data0:
   138  0014D6  0009               	tblrd		*+
   139  0014D8  CFF5 FFEE          	movff	tablat,postinc0
   140  0014DC  50E5               	movf	postdec1,w,c
   141  0014DE  50E1               	movf	fsr1l,w,c
   142  0014E0  E1FA               	bnz	copy_data0
   143                           
   144                           ; Clear objects allocated to BANK1 (80 bytes)
   145  0014E2  EE01  F000         	lfsr	0,__pbssBANK1
   146  0014E6  0E50               	movlw	80
   147  0014E8                     clear_0:
   148  0014E8  6AEE               	clrf	postinc0,c
   149  0014EA  06E8               	decf	wreg,f,c
   150  0014EC  E1FD               	bnz	clear_0
   151                           
   152                           ; Clear objects allocated to BANK0 (155 bytes)
   153  0014EE  EE00  F060         	lfsr	0,__pbssBANK0
   154  0014F2  0E9B               	movlw	155
   155  0014F4                     clear_1:
   156  0014F4  6AEE               	clrf	postinc0,c
   157  0014F6  06E8               	decf	wreg,f,c
   158  0014F8  E1FD               	bnz	clear_1
   159                           
   160                           ; Clear objects allocated to COMRAM (25 bytes)
   161  0014FA  EE00  F022         	lfsr	0,__pbssCOMRAM
   162  0014FE  0E19               	movlw	25
   163  001500                     clear_2:
   164  001500  6AEE               	clrf	postinc0,c
   165  001502  06E8               	decf	wreg,f,c
   166  001504  E1FD               	bnz	clear_2
   167  001506                     end_of_initialization:
   168                           	opt callstack 0
   169  001506                     __end_of__initialization:
   170                           	opt callstack 0
   171  001506  9045               	bcf	int$flags,0,c	;clear compiler interrupt flag (level 1)
   172  001508  9245               	bcf	int$flags,1,c	;clear compiler interrupt flag (level 2)
   173  00150A  0E00               	movlw	low (__Lmediumconst shr (0+16))
   174  00150C  6EF8               	movwf	tblptru,c
   175  00150E  0100               	movlb	0
   176  001510  EF0F  F00B         	goto	_main	;jump to C main() function
   177                           
   178                           	psect	bssCOMRAM
   179  000022                     __pbssCOMRAM:
   180                           	opt callstack 0
   181  000022                     _DOArray:
   182                           	opt callstack 0
   183  000022                     	ds	15
   184  000031                     TMR0_ISR@counter:
   185                           	opt callstack 0
   186  000031                     	ds	2
   187  000033                     _tempCounter:
   188                           	opt callstack 0
   189  000033                     	ds	2
   190  000035                     _tick_counter:
   191                           	opt callstack 0
   192  000035                     	ds	2
   193  000037                     Keypad@tick_counter:
   194                           	opt callstack 0
   195  000037                     	ds	1
   196  000038                     _current_column:
   197                           	opt callstack 0
   198  000038                     	ds	1
   199  000039                     	ds	1
   200  00003A                     _line_counter:
   201                           	opt callstack 0
   202  00003A                     	ds	1
   203                           
   204                           	psect	dataCOMRAM
   205  00003B                     __pdataCOMRAM:
   206                           	opt callstack 0
   207  00003B                     LCD_Init_Custom_Sym@F3257:
   208                           	opt callstack 0
   209  00003B                     	ds	8
   210  000043                     _lines_offset_adresses:
   211                           	opt callstack 0
   212  000043                     	ds	2
   213                           
   214                           	psect	bssBANK0
   215  000060                     __pbssBANK0:
   216                           	opt callstack 0
   217  000060                     _update_flag:
   218                           	opt callstack 0
   219  000060                     	ds	84
   220  0000B4                     _KP_Btn_Data:
   221                           	opt callstack 0
   222  0000B4                     	ds	36
   223  0000D8                     _keypad:
   224                           	opt callstack 0
   225  0000D8                     	ds	35
   226                           
   227                           	psect	bssBANK1
   228  000100                     __pbssBANK1:
   229                           	opt callstack 0
   230  000100                     _LCD_Data_Buffer:
   231                           	opt callstack 0
   232  000100                     	ds	80
   233                           
   234                           	psect	cstackBANK1
   235  000150                     __pcstackBANK1:
   236                           	opt callstack 0
   237  000150                     ??_GPIO_Init_Pin:
   238  000150                     ??_GPIO_Init_Nibble:
   239  000150                     LCD_Init_Custom_Sym@data:
   240                           	opt callstack 0
   241                           
   242                           ; 8 bytes @ 0x0
   243  000150                     	ds	4
   244  000154                     _GPIO_Init_Nibble$44:
   245                           	opt callstack 0
   246                           
   247                           ; 2 bytes @ 0x4
   248  000154                     	ds	1
   249  000155                     ??_keypad_Init:
   250  000155                     DO_Init@port:
   251                           	opt callstack 0
   252                           
   253                           ; 2 bytes @ 0x5
   254  000155                     	ds	2
   255  000157                     DO_Init@dir:
   256                           	opt callstack 0
   257                           
   258                           ; 2 bytes @ 0x7
   259  000157                     	ds	1
   260  000158                     LCD_Init_Custom_Sym@i:
   261                           	opt callstack 0
   262                           
   263                           ; 2 bytes @ 0x8
   264  000158                     	ds	1
   265  000159                     DO_Init@pinN:
   266                           	opt callstack 0
   267                           
   268                           ; 1 bytes @ 0x9
   269  000159                     	ds	1
   270  00015A                     ??_LCD_Init:
   271  00015A                     DO_Init@state:
   272                           	opt callstack 0
   273                           
   274                           ; 1 bytes @ 0xA
   275  00015A                     	ds	1
   276  00015B                     ??_DO_Init:
   277                           
   278                           ; 1 bytes @ 0xB
   279  00015B                     	ds	5
   280  000160                     DO_Init@DO:
   281                           	opt callstack 0
   282                           
   283                           ; 1 bytes @ 0x10
   284  000160                     	ds	1
   285                           
   286                           	psect	cstackBANK0
   287  0000FB                     __pcstackBANK0:
   288                           	opt callstack 0
   289  0000FB                     LCD_Data_Out@byte:
   290                           	opt callstack 0
   291  0000FB                     GPIO_Init_Pin@DirRegAddress:
   292                           	opt callstack 0
   293  0000FB                     GPIO_Init_Nibble@DirRegAddress:
   294                           	opt callstack 0
   295                           
   296                           ; 2 bytes @ 0x0
   297  0000FB                     	ds	1
   298  0000FC                     LCD_Write_Symbol@sym:
   299                           	opt callstack 0
   300  0000FC                     LCD_Write_Instruction@inst:
   301                           	opt callstack 0
   302                           
   303                           ; 1 bytes @ 0x1
   304  0000FC                     	ds	1
   305  0000FD                     GPIO_Init_Pin@pin_number:
   306                           	opt callstack 0
   307  0000FD                     GPIO_Init_Nibble@nibble_num:
   308                           	opt callstack 0
   309  0000FD                     LCD_SetCGRAM@ADDRESS:
   310                           	opt callstack 0
   311                           
   312                           ; 1 bytes @ 0x2
   313  0000FD                     	ds	1
   314  0000FE                     GPIO_Init_Pin@dir:
   315                           	opt callstack 0
   316  0000FE                     GPIO_Init_Nibble@dir:
   317                           	opt callstack 0
   318                           
   319                           ; 1 bytes @ 0x3
   320  0000FE                     	ds	2
   321  000100                     
   322                           ; 1 bytes @ 0x5
   323                           
   324                           	psect	cstackCOMRAM
   325  000001                     __pcstackCOMRAM:
   326                           	opt callstack 0
   327  000001                     ?___wmul:
   328                           	opt callstack 0
   329  000001                     ?___awdiv:
   330                           	opt callstack 0
   331  000001                     i2LCD_Data_Out@byte:
   332                           	opt callstack 0
   333  000001                     ___wmul@multiplier:
   334                           	opt callstack 0
   335  000001                     ___awdiv@dividend:
   336                           	opt callstack 0
   337                           
   338                           ; 2 bytes @ 0x0
   339  000001                     	ds	1
   340  000002                     i2LCD_Write_Symbol@sym:
   341                           	opt callstack 0
   342  000002                     i2LCD_Write_Instruction@inst:
   343                           	opt callstack 0
   344                           
   345                           ; 1 bytes @ 0x1
   346  000002                     	ds	1
   347  000003                     LCD_SetDDRAM@ADDRESS:
   348                           	opt callstack 0
   349  000003                     ___wmul@multiplicand:
   350                           	opt callstack 0
   351  000003                     ___awdiv@divisor:
   352                           	opt callstack 0
   353                           
   354                           ; 2 bytes @ 0x2
   355  000003                     	ds	1
   356  000004                     ??_LCD_Update:
   357                           
   358                           ; 1 bytes @ 0x3
   359  000004                     	ds	1
   360  000005                     ___awdiv@counter:
   361                           	opt callstack 0
   362  000005                     ___wmul@product:
   363                           	opt callstack 0
   364                           
   365                           ; 2 bytes @ 0x4
   366  000005                     	ds	1
   367  000006                     ___awdiv@sign:
   368                           	opt callstack 0
   369                           
   370                           ; 1 bytes @ 0x5
   371  000006                     	ds	1
   372  000007                     ___awdiv@quotient:
   373                           	opt callstack 0
   374                           
   375                           ; 2 bytes @ 0x6
   376  000007                     	ds	2
   377  000009                     LCD_SetSymbol@row:
   378                           	opt callstack 0
   379                           
   380                           ; 1 bytes @ 0x8
   381  000009                     	ds	1
   382  00000A                     LCD_SetSymbol@column:
   383                           	opt callstack 0
   384                           
   385                           ; 1 bytes @ 0x9
   386  00000A                     	ds	1
   387  00000B                     ??_LCD_SetSymbol:
   388                           
   389                           ; 1 bytes @ 0xA
   390  00000B                     	ds	2
   391  00000D                     LCD_Update@address:
   392                           	opt callstack 0
   393                           
   394                           ; 1 bytes @ 0xC
   395  00000D                     	ds	1
   396  00000E                     LCD_Update@updated:
   397                           	opt callstack 0
   398                           
   399                           ; 1 bytes @ 0xD
   400  00000E                     	ds	1
   401  00000F                     LCD_Update@i:
   402                           	opt callstack 0
   403                           
   404                           ; 1 bytes @ 0xE
   405  00000F                     	ds	1
   406  000010                     LCD_SetSymbol@sym:
   407                           	opt callstack 0
   408  000010                     LCD_Update@j:
   409                           	opt callstack 0
   410                           
   411                           ; 1 bytes @ 0xF
   412  000010                     	ds	1
   413  000011                     ??_keypad_Update:
   414                           
   415                           ; 1 bytes @ 0x10
   416  000011                     	ds	9
   417  00001A                     keypad_Update@i:
   418                           	opt callstack 0
   419                           
   420                           ; 2 bytes @ 0x19
   421  00001A                     	ds	2
   422  00001C                     ??_TMR0_ISR:
   423                           
   424                           ; 1 bytes @ 0x1B
   425  00001C                     	ds	6
   426                           
   427 ;;
   428 ;;Main: autosize = 0, tempsize = 0, incstack = 0, save=0
   429 ;;
   430 ;; *************** function _main *****************
   431 ;; Defined at:
   432 ;;		line 87 in file "Microwave.c"
   433 ;; Parameters:    Size  Location     Type
   434 ;;		None
   435 ;; Auto vars:     Size  Location     Type
   436 ;;		None
   437 ;; Return value:  Size  Location     Type
   438 ;;                  1    wreg      void 
   439 ;; Registers used:
   440 ;;		wreg, fsr1l, fsr1h, fsr2l, fsr2h, status,2, status,0, prodl, prodh, cstack
   441 ;; Tracked objects:
   442 ;;		On entry : 0/0
   443 ;;		On exit  : 0/0
   444 ;;		Unchanged: 0/0
   445 ;; Data sizes:     COMRAM   BANK0   BANK1   BANK2   BANK3   BANK4   BANK5   BANK6   BANK7
   446 ;;      Params:         0       0       0       0       0       0       0       0       0
   447 ;;      Locals:         0       0       0       0       0       0       0       0       0
   448 ;;      Temps:          0       0       0       0       0       0       0       0       0
   449 ;;      Totals:         0       0       0       0       0       0       0       0       0
   450 ;;Total ram usage:        0 bytes
   451 ;; Hardware stack levels required when called:   10
   452 ;; This function calls:
   453 ;;		_LCD_Init
   454 ;;		_TMR_Init
   455 ;;		_TMR_Start
   456 ;;		_init
   457 ;;		_keypad_Init
   458 ;; This function is called by:
   459 ;;		Startup code after reset
   460 ;; This function uses a non-reentrant model
   461 ;;
   462                           
   463                           	psect	text0
   464  00161E                     __ptext0:
   465                           	opt callstack 0
   466  00161E                     _main:
   467                           	opt callstack 21
   468  00161E                     
   469                           ;Microwave.c: 90:     LCD_Init();
   470  00161E  ECEC  F007         	call	_LCD_Init	;wreg free
   471  001622                     
   472                           ;Microwave.c: 91:     init();
   473  001622  EC30  F00A         	call	_init	;wreg free
   474  001626                     
   475                           ;Microwave.c: 92:     TMR_Init();
   476  001626  EC30  F00B         	call	_TMR_Init	;wreg free
   477  00162A                     
   478                           ;Microwave.c: 93:     TMR_Start();
   479  00162A  EC27  F00B         	call	_TMR_Start	;wreg free
   480  00162E                     
   481                           ;Microwave.c: 94:     keypad_Init();
   482  00162E  EC93  F003         	call	_keypad_Init	;wreg free
   483  001632                     l221:
   484  001632  EF19  F00B         	goto	l221
   485  001636  EF07  F000         	goto	start
   486  00163A                     __end_of_main:
   487                           	opt callstack 0
   488                           
   489 ;; *************** function _keypad_Init *****************
   490 ;; Defined at:
   491 ;;		line 82 in file "Keypad.c"
   492 ;; Parameters:    Size  Location     Type
   493 ;;		None
   494 ;; Auto vars:     Size  Location     Type
   495 ;;		None
   496 ;; Return value:  Size  Location     Type
   497 ;;                  1    wreg      void 
   498 ;; Registers used:
   499 ;;		wreg, fsr1l, fsr1h, fsr2l, fsr2h, status,2, status,0, prodl, prodh, cstack
   500 ;; Tracked objects:
   501 ;;		On entry : 0/0
   502 ;;		On exit  : 0/0
   503 ;;		Unchanged: 0/0
   504 ;; Data sizes:     COMRAM   BANK0   BANK1   BANK2   BANK3   BANK4   BANK5   BANK6   BANK7
   505 ;;      Params:         0       0       0       0       0       0       0       0       0
   506 ;;      Locals:         0       0       0       0       0       0       0       0       0
   507 ;;      Temps:          0       0       9       0       0       0       0       0       0
   508 ;;      Totals:         0       0       9       0       0       0       0       0       0
   509 ;;Total ram usage:        9 bytes
   510 ;; Hardware stack levels used:    1
   511 ;; Hardware stack levels required when called:    6
   512 ;; This function calls:
   513 ;;		_GPIO_Init_Pin
   514 ;; This function is called by:
   515 ;;		_main
   516 ;; This function uses a non-reentrant model
   517 ;;
   518                           
   519                           	psect	text1
   520  000726                     __ptext1:
   521                           	opt callstack 0
   522  000726                     _keypad_Init:
   523                           	opt callstack 24
   524  000726                     
   525                           ;Keypad.c: 85:     (RDPU = 0);
   526  000726  9E84               	bcf	3972,7,c	;volatile
   527  000728                     
   528                           ;Keypad.c: 89:     keypad.KP_I_Pins[0].portRegPtr = &((PORTD));
   529  000728  0E83               	movlw	131
   530  00072A  0100               	movlb	0	; () banked
   531  00072C  6FE7               	movwf	(_keypad+15)& (0+255),b
   532  00072E  0E0F               	movlw	15
   533  000730  6FE8               	movwf	(_keypad+16)& (0+255),b
   534                           
   535                           ;Keypad.c: 90:     keypad.KP_I_Pins[0].dirRegPtr = &((TRISD));
   536  000732  0E95               	movlw	149
   537  000734  6FE9               	movwf	(_keypad+17)& (0+255),b
   538  000736  0E0F               	movlw	15
   539  000738  6FEA               	movwf	(_keypad+18)& (0+255),b
   540  00073A                     
   541                           ; BSR set to: 0
   542                           ;Keypad.c: 91:     keypad.KP_I_Pins[0].pin = ((3));
   543  00073A  0E03               	movlw	3
   544  00073C  6FEB               	movwf	(_keypad+19)& (0+255),b
   545  00073E                     
   546                           ; BSR set to: 0
   547                           ;Keypad.c: 92:     GPIO_Init_Pin(keypad.KP_I_Pins[0].dirRegPtr,keypad.KP_I_Pins[0].pin,(
      +                          1));
   548  00073E  C0E9  F0FB         	movff	_keypad+17,GPIO_Init_Pin@DirRegAddress
   549  000742  C0EA  F0FC         	movff	_keypad+18,GPIO_Init_Pin@DirRegAddress+1
   550  000746  C0EB  F0FD         	movff	_keypad+19,GPIO_Init_Pin@pin_number
   551  00074A  0E01               	movlw	1
   552  00074C  6FFE               	movwf	GPIO_Init_Pin@dir& (0+255),b
   553  00074E  EC62  F008         	call	_GPIO_Init_Pin	;wreg free
   554  000752                     
   555                           ;Keypad.c: 94:     keypad.KP_I_Pins[1].portRegPtr = &((PORTD));
   556  000752  0E83               	movlw	131
   557  000754  0100               	movlb	0	; () banked
   558  000756  6FEC               	movwf	(_keypad+20)& (0+255),b
   559  000758  0E0F               	movlw	15
   560  00075A  6FED               	movwf	(_keypad+21)& (0+255),b
   561  00075C                     
   562                           ; BSR set to: 0
   563                           ;Keypad.c: 95:     keypad.KP_I_Pins[1].dirRegPtr = &((TRISD));
   564  00075C  0E95               	movlw	149
   565  00075E  6FEE               	movwf	(_keypad+22)& (0+255),b
   566  000760  0E0F               	movlw	15
   567  000762  6FEF               	movwf	(_keypad+23)& (0+255),b
   568  000764                     
   569                           ; BSR set to: 0
   570                           ;Keypad.c: 96:     keypad.KP_I_Pins[1].pin = ((2));
   571  000764  0E02               	movlw	2
   572  000766  6FF0               	movwf	(_keypad+24)& (0+255),b
   573  000768                     
   574                           ; BSR set to: 0
   575                           ;Keypad.c: 97:     GPIO_Init_Pin(keypad.KP_I_Pins[1].dirRegPtr,keypad.KP_I_Pins[1].pin,(
      +                          1));
   576  000768  C0EE  F0FB         	movff	_keypad+22,GPIO_Init_Pin@DirRegAddress
   577  00076C  C0EF  F0FC         	movff	_keypad+23,GPIO_Init_Pin@DirRegAddress+1
   578  000770  C0F0  F0FD         	movff	_keypad+24,GPIO_Init_Pin@pin_number
   579  000774  0E01               	movlw	1
   580  000776  6FFE               	movwf	GPIO_Init_Pin@dir& (0+255),b
   581  000778  EC62  F008         	call	_GPIO_Init_Pin	;wreg free
   582                           
   583                           ;Keypad.c: 99:     keypad.KP_I_Pins[2].portRegPtr = &((PORTD));
   584  00077C  0E83               	movlw	131
   585  00077E  0100               	movlb	0	; () banked
   586  000780  6FF1               	movwf	(_keypad+25)& (0+255),b
   587  000782  0E0F               	movlw	15
   588  000784  6FF2               	movwf	(_keypad+26)& (0+255),b
   589                           
   590                           ;Keypad.c: 100:     keypad.KP_I_Pins[2].dirRegPtr = &((TRISD));
   591  000786  0E95               	movlw	149
   592  000788  6FF3               	movwf	(_keypad+27)& (0+255),b
   593  00078A  0E0F               	movlw	15
   594  00078C  6FF4               	movwf	(_keypad+28)& (0+255),b
   595  00078E                     
   596                           ; BSR set to: 0
   597                           ;Keypad.c: 101:     keypad.KP_I_Pins[2].pin = ((1));
   598  00078E  0E01               	movlw	1
   599  000790  6FF5               	movwf	(_keypad+29)& (0+255),b
   600  000792                     
   601                           ; BSR set to: 0
   602                           ;Keypad.c: 102:     GPIO_Init_Pin(keypad.KP_I_Pins[2].dirRegPtr,keypad.KP_I_Pins[2].pin,
      +                          (1));
   603  000792  C0F3  F0FB         	movff	_keypad+27,GPIO_Init_Pin@DirRegAddress
   604  000796  C0F4  F0FC         	movff	_keypad+28,GPIO_Init_Pin@DirRegAddress+1
   605  00079A  C0F5  F0FD         	movff	_keypad+29,GPIO_Init_Pin@pin_number
   606  00079E  0E01               	movlw	1
   607  0007A0  6FFE               	movwf	GPIO_Init_Pin@dir& (0+255),b
   608  0007A2  EC62  F008         	call	_GPIO_Init_Pin	;wreg free
   609  0007A6                     
   610                           ;Keypad.c: 104:     keypad.KP_I_Pins[3].portRegPtr = &((PORTD));
   611  0007A6  0E83               	movlw	131
   612  0007A8  0100               	movlb	0	; () banked
   613  0007AA  6FF6               	movwf	(_keypad+30)& (0+255),b
   614  0007AC  0E0F               	movlw	15
   615  0007AE  6FF7               	movwf	(_keypad+31)& (0+255),b
   616  0007B0                     
   617                           ; BSR set to: 0
   618                           ;Keypad.c: 105:     keypad.KP_I_Pins[3].dirRegPtr = &((TRISD));
   619  0007B0  0E95               	movlw	149
   620  0007B2  6FF8               	movwf	(_keypad+32)& (0+255),b
   621  0007B4  0E0F               	movlw	15
   622  0007B6  6FF9               	movwf	(_keypad+33)& (0+255),b
   623  0007B8                     
   624                           ; BSR set to: 0
   625                           ;Keypad.c: 106:     keypad.KP_I_Pins[3].pin = ((0));
   626  0007B8  0E00               	movlw	0
   627  0007BA  6FFA               	movwf	(_keypad+34)& (0+255),b
   628  0007BC                     
   629                           ; BSR set to: 0
   630                           ;Keypad.c: 107:     GPIO_Init_Pin(keypad.KP_I_Pins[3].dirRegPtr,keypad.KP_I_Pins[3].pin,
      +                          (1));
   631  0007BC  C0F8  F0FB         	movff	_keypad+32,GPIO_Init_Pin@DirRegAddress
   632  0007C0  C0F9  F0FC         	movff	_keypad+33,GPIO_Init_Pin@DirRegAddress+1
   633  0007C4  C0FA  F0FD         	movff	_keypad+34,GPIO_Init_Pin@pin_number
   634  0007C8  0E01               	movlw	1
   635  0007CA  6FFE               	movwf	GPIO_Init_Pin@dir& (0+255),b
   636  0007CC  EC62  F008         	call	_GPIO_Init_Pin	;wreg free
   637                           
   638                           ;Keypad.c: 110:     keypad.KP_O_Pins[0].portRegPtr = &((PORTB));
   639  0007D0  0E81               	movlw	129
   640  0007D2  0100               	movlb	0	; () banked
   641  0007D4  6FD8               	movwf	_keypad& (0+255),b
   642  0007D6  0E0F               	movlw	15
   643  0007D8  6FD9               	movwf	(_keypad+1)& (0+255),b
   644                           
   645                           ;Keypad.c: 111:     keypad.KP_O_Pins[0].dirRegPtr = &((TRISB));
   646  0007DA  0E93               	movlw	147
   647  0007DC  6FDA               	movwf	(_keypad+2)& (0+255),b
   648  0007DE  0E0F               	movlw	15
   649  0007E0  6FDB               	movwf	(_keypad+3)& (0+255),b
   650  0007E2                     
   651                           ; BSR set to: 0
   652                           ;Keypad.c: 112:     keypad.KP_O_Pins[0].pin = ((0));
   653  0007E2  0E00               	movlw	0
   654  0007E4  6FDC               	movwf	(_keypad+4)& (0+255),b
   655  0007E6                     
   656                           ; BSR set to: 0
   657                           ;Keypad.c: 113:     GPIO_Init_Pin(keypad.KP_O_Pins[0].dirRegPtr,keypad.KP_O_Pins[0].pin,
      +                          (0));
   658  0007E6  C0DA  F0FB         	movff	_keypad+2,GPIO_Init_Pin@DirRegAddress
   659  0007EA  C0DB  F0FC         	movff	_keypad+3,GPIO_Init_Pin@DirRegAddress+1
   660  0007EE  C0DC  F0FD         	movff	_keypad+4,GPIO_Init_Pin@pin_number
   661  0007F2  0E00               	movlw	0
   662  0007F4  6FFE               	movwf	GPIO_Init_Pin@dir& (0+255),b
   663  0007F6  EC62  F008         	call	_GPIO_Init_Pin	;wreg free
   664  0007FA                     
   665                           ;Keypad.c: 115:     keypad.KP_O_Pins[1].portRegPtr = &((PORTB));
   666  0007FA  0E81               	movlw	129
   667  0007FC  0100               	movlb	0	; () banked
   668  0007FE  6FDD               	movwf	(_keypad+5)& (0+255),b
   669  000800  0E0F               	movlw	15
   670  000802  6FDE               	movwf	(_keypad+6)& (0+255),b
   671  000804                     
   672                           ; BSR set to: 0
   673                           ;Keypad.c: 116:     keypad.KP_O_Pins[1].dirRegPtr = &((TRISB));
   674  000804  0E93               	movlw	147
   675  000806  6FDF               	movwf	(_keypad+7)& (0+255),b
   676  000808  0E0F               	movlw	15
   677  00080A  6FE0               	movwf	(_keypad+8)& (0+255),b
   678  00080C                     
   679                           ; BSR set to: 0
   680                           ;Keypad.c: 117:     keypad.KP_O_Pins[1].pin = ((1));
   681  00080C  0E01               	movlw	1
   682  00080E  6FE1               	movwf	(_keypad+9)& (0+255),b
   683  000810                     
   684                           ; BSR set to: 0
   685                           ;Keypad.c: 118:     GPIO_Init_Pin(keypad.KP_O_Pins[1].dirRegPtr,keypad.KP_O_Pins[1].pin,
      +                          (0));
   686  000810  C0DF  F0FB         	movff	_keypad+7,GPIO_Init_Pin@DirRegAddress
   687  000814  C0E0  F0FC         	movff	_keypad+8,GPIO_Init_Pin@DirRegAddress+1
   688  000818  C0E1  F0FD         	movff	_keypad+9,GPIO_Init_Pin@pin_number
   689  00081C  0E00               	movlw	0
   690  00081E  6FFE               	movwf	GPIO_Init_Pin@dir& (0+255),b
   691  000820  EC62  F008         	call	_GPIO_Init_Pin	;wreg free
   692                           
   693                           ;Keypad.c: 120:     keypad.KP_O_Pins[2].portRegPtr = &((PORTB));
   694  000824  0E81               	movlw	129
   695  000826  0100               	movlb	0	; () banked
   696  000828  6FE2               	movwf	(_keypad+10)& (0+255),b
   697  00082A  0E0F               	movlw	15
   698  00082C  6FE3               	movwf	(_keypad+11)& (0+255),b
   699                           
   700                           ;Keypad.c: 121:     keypad.KP_O_Pins[2].dirRegPtr = &((TRISB));
   701  00082E  0E93               	movlw	147
   702  000830  6FE4               	movwf	(_keypad+12)& (0+255),b
   703  000832  0E0F               	movlw	15
   704  000834  6FE5               	movwf	(_keypad+13)& (0+255),b
   705  000836                     
   706                           ; BSR set to: 0
   707                           ;Keypad.c: 122:     keypad.KP_O_Pins[2].pin = ((2));
   708  000836  0E02               	movlw	2
   709  000838  6FE6               	movwf	(_keypad+14)& (0+255),b
   710  00083A                     
   711                           ; BSR set to: 0
   712                           ;Keypad.c: 123:     GPIO_Init_Pin(keypad.KP_O_Pins[2].dirRegPtr,keypad.KP_O_Pins[2].pin,
      +                          (0));
   713  00083A  C0E4  F0FB         	movff	_keypad+12,GPIO_Init_Pin@DirRegAddress
   714  00083E  C0E5  F0FC         	movff	_keypad+13,GPIO_Init_Pin@DirRegAddress+1
   715  000842  C0E6  F0FD         	movff	_keypad+14,GPIO_Init_Pin@pin_number
   716  000846  0E00               	movlw	0
   717  000848  6FFE               	movwf	GPIO_Init_Pin@dir& (0+255),b
   718  00084A  EC62  F008         	call	_GPIO_Init_Pin	;wreg free
   719  00084E                     
   720                           ;Keypad.c: 126:     ((*keypad.KP_O_Pins[0].portRegPtr)=(*keypad.KP_O_Pins[0].portRegPtr 
      +                          & ~(1<<keypad.KP_O_Pins[0].pin))|((1)<<keypad.KP_O_Pins[0].pin));
   721  00084E  C0DC  F155         	movff	_keypad+4,??_keypad_Init
   722  000852  0E01               	movlw	1
   723  000854  0101               	movlb	1	; () banked
   724  000856  6F56               	movwf	(??_keypad_Init+1)& (0+255),b
   725  000858  2B55               	incf	??_keypad_Init& (0+255),f,b
   726  00085A  EF31  F004         	goto	u1784
   727  00085E                     u1785:
   728  00085E  90D8               	bcf	status,0,c
   729  000860  3756               	rlcf	(??_keypad_Init+1)& (0+255),f,b
   730  000862                     u1784:
   731  000862  2F55               	decfsz	??_keypad_Init& (0+255),f,b
   732  000864  EF2F  F004         	goto	u1785
   733  000868  C0D8  FFD9         	movff	_keypad,fsr2l
   734  00086C  C0D9  FFDA         	movff	_keypad+1,fsr2h
   735  000870  50DF               	movf	indf2,w,c
   736  000872  0101               	movlb	1	; () banked
   737  000874  6F57               	movwf	(??_keypad_Init+2)& (0+255),b
   738  000876  C0DC  F158         	movff	_keypad+4,??_keypad_Init+3
   739  00087A  0E01               	movlw	1
   740  00087C  6F59               	movwf	(??_keypad_Init+4)& (0+255),b
   741  00087E  2B58               	incf	(??_keypad_Init+3)& (0+255),f,b
   742  000880  EF44  F004         	goto	u1794
   743  000884                     u1795:
   744  000884  90D8               	bcf	status,0,c
   745  000886  3759               	rlcf	(??_keypad_Init+4)& (0+255),f,b
   746  000888                     u1794:
   747  000888  2F58               	decfsz	(??_keypad_Init+3)& (0+255),f,b
   748  00088A  EF42  F004         	goto	u1795
   749  00088E  0101               	movlb	1	; () banked
   750  000890  5159               	movf	(??_keypad_Init+4)& (0+255),w,b
   751  000892  0AFF               	xorlw	255
   752  000894  1557               	andwf	(??_keypad_Init+2)& (0+255),w,b
   753  000896  1156               	iorwf	(??_keypad_Init+1)& (0+255),w,b
   754  000898  C0D8  FFD9         	movff	_keypad,fsr2l
   755  00089C  C0D9  FFDA         	movff	_keypad+1,fsr2h
   756  0008A0  6EDF               	movwf	indf2,c
   757  0008A2                     
   758                           ; BSR set to: 1
   759                           ;Keypad.c: 127:     ((*keypad.KP_O_Pins[1].portRegPtr)=(*keypad.KP_O_Pins[1].portRegPtr 
      +                          & ~(1<<keypad.KP_O_Pins[1].pin))|((1)<<keypad.KP_O_Pins[1].pin));
   760  0008A2  C0E1  F155         	movff	_keypad+9,??_keypad_Init
   761  0008A6  0E01               	movlw	1
   762  0008A8  6F56               	movwf	(??_keypad_Init+1)& (0+255),b
   763  0008AA  2B55               	incf	??_keypad_Init& (0+255),f,b
   764  0008AC  EF5A  F004         	goto	u1804
   765  0008B0                     u1805:
   766  0008B0  90D8               	bcf	status,0,c
   767  0008B2  3756               	rlcf	(??_keypad_Init+1)& (0+255),f,b
   768  0008B4                     u1804:
   769  0008B4  2F55               	decfsz	??_keypad_Init& (0+255),f,b
   770  0008B6  EF58  F004         	goto	u1805
   771  0008BA  C0DD  FFD9         	movff	_keypad+5,fsr2l
   772  0008BE  C0DE  FFDA         	movff	_keypad+6,fsr2h
   773  0008C2  50DF               	movf	indf2,w,c
   774  0008C4  0101               	movlb	1	; () banked
   775  0008C6  6F57               	movwf	(??_keypad_Init+2)& (0+255),b
   776  0008C8  C0E1  F158         	movff	_keypad+9,??_keypad_Init+3
   777  0008CC  0E01               	movlw	1
   778  0008CE  6F59               	movwf	(??_keypad_Init+4)& (0+255),b
   779  0008D0  2B58               	incf	(??_keypad_Init+3)& (0+255),f,b
   780  0008D2  EF6D  F004         	goto	u1814
   781  0008D6                     u1815:
   782  0008D6  90D8               	bcf	status,0,c
   783  0008D8  3759               	rlcf	(??_keypad_Init+4)& (0+255),f,b
   784  0008DA                     u1814:
   785  0008DA  2F58               	decfsz	(??_keypad_Init+3)& (0+255),f,b
   786  0008DC  EF6B  F004         	goto	u1815
   787  0008E0  0101               	movlb	1	; () banked
   788  0008E2  5159               	movf	(??_keypad_Init+4)& (0+255),w,b
   789  0008E4  0AFF               	xorlw	255
   790  0008E6  1557               	andwf	(??_keypad_Init+2)& (0+255),w,b
   791  0008E8  1156               	iorwf	(??_keypad_Init+1)& (0+255),w,b
   792  0008EA  C0DD  FFD9         	movff	_keypad+5,fsr2l
   793  0008EE  C0DE  FFDA         	movff	_keypad+6,fsr2h
   794  0008F2  6EDF               	movwf	indf2,c
   795  0008F4                     
   796                           ; BSR set to: 1
   797                           ;Keypad.c: 128:     ((*keypad.KP_O_Pins[2].portRegPtr)=(*keypad.KP_O_Pins[2].portRegPtr 
      +                          & ~(1<<keypad.KP_O_Pins[2].pin))|((1)<<keypad.KP_O_Pins[2].pin));
   798  0008F4  C0E6  F155         	movff	_keypad+14,??_keypad_Init
   799  0008F8  0E01               	movlw	1
   800  0008FA  6F56               	movwf	(??_keypad_Init+1)& (0+255),b
   801  0008FC  2B55               	incf	??_keypad_Init& (0+255),f,b
   802  0008FE  EF83  F004         	goto	u1824
   803  000902                     u1825:
   804  000902  90D8               	bcf	status,0,c
   805  000904  3756               	rlcf	(??_keypad_Init+1)& (0+255),f,b
   806  000906                     u1824:
   807  000906  2F55               	decfsz	??_keypad_Init& (0+255),f,b
   808  000908  EF81  F004         	goto	u1825
   809  00090C  C0E2  FFD9         	movff	_keypad+10,fsr2l
   810  000910  C0E3  FFDA         	movff	_keypad+11,fsr2h
   811  000914  50DF               	movf	indf2,w,c
   812  000916  0101               	movlb	1	; () banked
   813  000918  6F57               	movwf	(??_keypad_Init+2)& (0+255),b
   814  00091A  C0E6  F158         	movff	_keypad+14,??_keypad_Init+3
   815  00091E  0E01               	movlw	1
   816  000920  6F59               	movwf	(??_keypad_Init+4)& (0+255),b
   817  000922  2B58               	incf	(??_keypad_Init+3)& (0+255),f,b
   818  000924  EF96  F004         	goto	u1834
   819  000928                     u1835:
   820  000928  90D8               	bcf	status,0,c
   821  00092A  3759               	rlcf	(??_keypad_Init+4)& (0+255),f,b
   822  00092C                     u1834:
   823  00092C  2F58               	decfsz	(??_keypad_Init+3)& (0+255),f,b
   824  00092E  EF94  F004         	goto	u1835
   825  000932  0101               	movlb	1	; () banked
   826  000934  5159               	movf	(??_keypad_Init+4)& (0+255),w,b
   827  000936  0AFF               	xorlw	255
   828  000938  1557               	andwf	(??_keypad_Init+2)& (0+255),w,b
   829  00093A  1156               	iorwf	(??_keypad_Init+1)& (0+255),w,b
   830  00093C  C0E2  FFD9         	movff	_keypad+10,fsr2l
   831  000940  C0E3  FFDA         	movff	_keypad+11,fsr2h
   832  000944  6EDF               	movwf	indf2,c
   833  000946                     
   834                           ; BSR set to: 1
   835                           ;Keypad.c: 131:     ((*keypad.KP_O_Pins[current_column].portRegPtr)=(*keypad.KP_O_Pins[c
      +                          urrent_column].portRegPtr & ~(1<<keypad.KP_O_Pins[current_column].pin))|((0)<<keypad.KP_
      +                          O_Pins[current_column].pin));
   836  000946  5038               	movf	_current_column^0,w,c
   837  000948  0D05               	mullw	5
   838  00094A  0ED8               	movlw	low _keypad
   839  00094C  24F3               	addwf	243,w,c
   840  00094E  6ED9               	movwf	fsr2l,c
   841  000950  0E00               	movlw	high _keypad
   842  000952  20F4               	addwfc	prodh,w,c
   843  000954  6EDA               	movwf	fsr2h,c
   844  000956  CFDE F155          	movff	postinc2,??_keypad_Init
   845  00095A  CFDD F156          	movff	postdec2,??_keypad_Init+1
   846  00095E  C155  FFD9         	movff	??_keypad_Init,fsr2l
   847  000962  C156  FFDA         	movff	??_keypad_Init+1,fsr2h
   848  000966  5038               	movf	_current_column^0,w,c
   849  000968  0D05               	mullw	5
   850  00096A  0EDC               	movlw	low (_keypad+4)
   851  00096C  24F3               	addwf	243,w,c
   852  00096E  6EE1               	movwf	fsr1l,c
   853  000970  0E00               	movlw	high (_keypad+4)
   854  000972  20F4               	addwfc	prodh,w,c
   855  000974  6EE2               	movwf	fsr1h,c
   856  000976  50E7               	movf	indf1,w,c
   857  000978  6F57               	movwf	(??_keypad_Init+2)& (0+255),b
   858  00097A  0E00               	movlw	0
   859  00097C  6F58               	movwf	(??_keypad_Init+3)& (0+255),b
   860  00097E  2B57               	incf	(??_keypad_Init+2)& (0+255),f,b
   861  000980  EFC4  F004         	goto	u1844
   862  000984                     u1845:
   863  000984  90D8               	bcf	status,0,c
   864  000986  3758               	rlcf	(??_keypad_Init+3)& (0+255),f,b
   865  000988                     u1844:
   866  000988  2F57               	decfsz	(??_keypad_Init+2)& (0+255),f,b
   867  00098A  EFC2  F004         	goto	u1845
   868  00098E  5038               	movf	_current_column^0,w,c
   869  000990  0D05               	mullw	5
   870  000992  0ED8               	movlw	low _keypad
   871  000994  24F3               	addwf	243,w,c
   872  000996  6EE1               	movwf	fsr1l,c
   873  000998  0E00               	movlw	high _keypad
   874  00099A  20F4               	addwfc	prodh,w,c
   875  00099C  6EE2               	movwf	fsr1h,c
   876  00099E  CFE6 F159          	movff	postinc1,??_keypad_Init+4
   877  0009A2  CFE5 F15A          	movff	postdec1,??_keypad_Init+5
   878  0009A6  C159  FFE1         	movff	??_keypad_Init+4,fsr1l
   879  0009AA  C15A  FFE2         	movff	??_keypad_Init+5,fsr1h
   880  0009AE  50E7               	movf	indf1,w,c
   881  0009B0  0101               	movlb	1	; () banked
   882  0009B2  6F5B               	movwf	(??_keypad_Init+6)& (0+255),b
   883  0009B4  5038               	movf	_current_column^0,w,c
   884  0009B6  0D05               	mullw	5
   885  0009B8  0EDC               	movlw	low (_keypad+4)
   886  0009BA  24F3               	addwf	243,w,c
   887  0009BC  6EE1               	movwf	fsr1l,c
   888  0009BE  0E00               	movlw	high (_keypad+4)
   889  0009C0  20F4               	addwfc	prodh,w,c
   890  0009C2  6EE2               	movwf	fsr1h,c
   891  0009C4  50E7               	movf	indf1,w,c
   892  0009C6  6F5C               	movwf	(??_keypad_Init+7)& (0+255),b
   893  0009C8  0E01               	movlw	1
   894  0009CA  6F5D               	movwf	(??_keypad_Init+8)& (0+255),b
   895  0009CC  2B5C               	incf	(??_keypad_Init+7)& (0+255),f,b
   896  0009CE  EFEB  F004         	goto	u1854
   897  0009D2                     u1855:
   898  0009D2  90D8               	bcf	status,0,c
   899  0009D4  375D               	rlcf	(??_keypad_Init+8)& (0+255),f,b
   900  0009D6                     u1854:
   901  0009D6  2F5C               	decfsz	(??_keypad_Init+7)& (0+255),f,b
   902  0009D8  EFE9  F004         	goto	u1855
   903  0009DC  0101               	movlb	1	; () banked
   904  0009DE  515D               	movf	(??_keypad_Init+8)& (0+255),w,b
   905  0009E0  0AFF               	xorlw	255
   906  0009E2  155B               	andwf	(??_keypad_Init+6)& (0+255),w,b
   907  0009E4  1158               	iorwf	(??_keypad_Init+3)& (0+255),w,b
   908  0009E6  6EDF               	movwf	indf2,c
   909  0009E8                     
   910                           ; BSR set to: 1
   911  0009E8  0012               	return		;funcret
   912  0009EA                     __end_of_keypad_Init:
   913                           	opt callstack 0
   914                           
   915 ;; *************** function _init *****************
   916 ;; Defined at:
   917 ;;		line 103 in file "Microwave.c"
   918 ;; Parameters:    Size  Location     Type
   919 ;;		None
   920 ;; Auto vars:     Size  Location     Type
   921 ;;		None
   922 ;; Return value:  Size  Location     Type
   923 ;;                  1    wreg      void 
   924 ;; Registers used:
   925 ;;		wreg, fsr2l, fsr2h, status,2, status,0, prodl, prodh, cstack
   926 ;; Tracked objects:
   927 ;;		On entry : 0/0
   928 ;;		On exit  : 0/0
   929 ;;		Unchanged: 0/0
   930 ;; Data sizes:     COMRAM   BANK0   BANK1   BANK2   BANK3   BANK4   BANK5   BANK6   BANK7
   931 ;;      Params:         0       0       0       0       0       0       0       0       0
   932 ;;      Locals:         0       0       0       0       0       0       0       0       0
   933 ;;      Temps:          0       0       0       0       0       0       0       0       0
   934 ;;      Totals:         0       0       0       0       0       0       0       0       0
   935 ;;Total ram usage:        0 bytes
   936 ;; Hardware stack levels used:    1
   937 ;; Hardware stack levels required when called:    7
   938 ;; This function calls:
   939 ;;		_DO_Init
   940 ;; This function is called by:
   941 ;;		_main
   942 ;; This function uses a non-reentrant model
   943 ;;
   944                           
   945                           	psect	text2
   946  001460                     __ptext2:
   947                           	opt callstack 0
   948  001460                     _init:
   949                           	opt callstack 23
   950  001460                     
   951                           ;Microwave.c: 108:     DO_Init(DO_LAMP,&(PORTB),&(TRISB),(0),DO_OFF);
   952  001460  0E81               	movlw	129
   953  001462  0101               	movlb	1	; () banked
   954  001464  6F55               	movwf	DO_Init@port& (0+255),b
   955  001466  0E0F               	movlw	15
   956  001468  6F56               	movwf	(DO_Init@port+1)& (0+255),b
   957  00146A  0E93               	movlw	147
   958  00146C  6F57               	movwf	DO_Init@dir& (0+255),b
   959  00146E  0E0F               	movlw	15
   960  001470  6F58               	movwf	(DO_Init@dir+1)& (0+255),b
   961  001472  0E00               	movlw	0
   962  001474  6F59               	movwf	DO_Init@pinN& (0+255),b
   963  001476  0E00               	movlw	0
   964  001478  6F5A               	movwf	DO_Init@state& (0+255),b
   965  00147A  0E00               	movlw	0
   966  00147C  EC32  F009         	call	_DO_Init
   967                           
   968                           ;Microwave.c: 110:     DO_Init(DO_HEATER,&(PORTB),&(TRISB),(1),DO_OFF);
   969  001480  0E81               	movlw	129
   970  001482  0101               	movlb	1	; () banked
   971  001484  6F55               	movwf	DO_Init@port& (0+255),b
   972  001486  0E0F               	movlw	15
   973  001488  6F56               	movwf	(DO_Init@port+1)& (0+255),b
   974  00148A  0E93               	movlw	147
   975  00148C  6F57               	movwf	DO_Init@dir& (0+255),b
   976  00148E  0E0F               	movlw	15
   977  001490  6F58               	movwf	(DO_Init@dir+1)& (0+255),b
   978  001492  0E01               	movlw	1
   979  001494  6F59               	movwf	DO_Init@pinN& (0+255),b
   980  001496  0E00               	movlw	0
   981  001498  6F5A               	movwf	DO_Init@state& (0+255),b
   982  00149A  0E01               	movlw	1
   983  00149C  EC32  F009         	call	_DO_Init
   984                           
   985                           ;Microwave.c: 112:     DO_Init(DO_MOTOR,&(PORTC),&(TRISC),(2),DO_OFF);
   986  0014A0  0E82               	movlw	130
   987  0014A2  0101               	movlb	1	; () banked
   988  0014A4  6F55               	movwf	DO_Init@port& (0+255),b
   989  0014A6  0E0F               	movlw	15
   990  0014A8  6F56               	movwf	(DO_Init@port+1)& (0+255),b
   991  0014AA  0E94               	movlw	148
   992  0014AC  6F57               	movwf	DO_Init@dir& (0+255),b
   993  0014AE  0E0F               	movlw	15
   994  0014B0  6F58               	movwf	(DO_Init@dir+1)& (0+255),b
   995  0014B2  0E02               	movlw	2
   996  0014B4  6F59               	movwf	DO_Init@pinN& (0+255),b
   997  0014B6  0E00               	movlw	0
   998  0014B8  6F5A               	movwf	DO_Init@state& (0+255),b
   999  0014BA  0E02               	movlw	2
  1000  0014BC  EC32  F009         	call	_DO_Init
  1001  0014C0  0012               	return		;funcret
  1002  0014C2                     __end_of_init:
  1003                           	opt callstack 0
  1004                           
  1005 ;; *************** function _DO_Init *****************
  1006 ;; Defined at:
  1007 ;;		line 25 in file "DO.c"
  1008 ;; Parameters:    Size  Location     Type
  1009 ;;  DO              1    wreg     enum E3166
  1010 ;;  port            2    5[BANK1 ] PTR volatile unsigned ch
  1011 ;;		 -> PORTC(1), PORTB(1), 
  1012 ;;  dir             2    7[BANK1 ] PTR volatile unsigned ch
  1013 ;;		 -> TRISC(1), TRISB(1), 
  1014 ;;  pinN            1    9[BANK1 ] unsigned char 
  1015 ;;  state           1   10[BANK1 ] enum E3162
  1016 ;; Auto vars:     Size  Location     Type
  1017 ;;  DO              1   16[BANK1 ] enum E3166
  1018 ;; Return value:  Size  Location     Type
  1019 ;;                  1    wreg      unsigned char 
  1020 ;; Registers used:
  1021 ;;		wreg, fsr2l, fsr2h, status,2, status,0, prodl, prodh, cstack
  1022 ;; Tracked objects:
  1023 ;;		On entry : 0/0
  1024 ;;		On exit  : 0/0
  1025 ;;		Unchanged: 0/0
  1026 ;; Data sizes:     COMRAM   BANK0   BANK1   BANK2   BANK3   BANK4   BANK5   BANK6   BANK7
  1027 ;;      Params:         0       0       6       0       0       0       0       0       0
  1028 ;;      Locals:         0       0       1       0       0       0       0       0       0
  1029 ;;      Temps:          0       0       5       0       0       0       0       0       0
  1030 ;;      Totals:         0       0      12       0       0       0       0       0       0
  1031 ;;Total ram usage:       12 bytes
  1032 ;; Hardware stack levels used:    1
  1033 ;; Hardware stack levels required when called:    6
  1034 ;; This function calls:
  1035 ;;		_GPIO_Init_Pin
  1036 ;; This function is called by:
  1037 ;;		_init
  1038 ;; This function uses a non-reentrant model
  1039 ;;
  1040                           
  1041                           	psect	text3
  1042  001264                     __ptext3:
  1043                           	opt callstack 0
  1044  001264                     _DO_Init:
  1045                           	opt callstack 23
  1046                           
  1047                           ;incstack = 0
  1048                           ;DO_Init@DO stored from wreg
  1049  001264  0101               	movlb	1	; () banked
  1050  001266  6F60               	movwf	DO_Init@DO& (0+255),b
  1051  001268                     
  1052                           ;DO.c: 25: uint8 DO_Init(DO_t DO ,volatile uint8* port ,volatile uint8* dir,uint8 pinN ,
      +                          LEDState_t state);DO.c: 26: {;DO.c: 27:     DOArray[DO].portRegPtr = port;
  1053  001268  0101               	movlb	1	; () banked
  1054  00126A  5160               	movf	DO_Init@DO& (0+255),w,b
  1055  00126C  0D05               	mullw	5
  1056  00126E  0E22               	movlw	low _DOArray
  1057  001270  24F3               	addwf	243,w,c
  1058  001272  6ED9               	movwf	fsr2l,c
  1059  001274  0E00               	movlw	high _DOArray
  1060  001276  20F4               	addwfc	prodh,w,c
  1061  001278  6EDA               	movwf	fsr2h,c
  1062  00127A  C155  FFDE         	movff	DO_Init@port,postinc2
  1063  00127E  C156  FFDD         	movff	DO_Init@port+1,postdec2
  1064                           
  1065                           ;DO.c: 28:     DOArray[DO].dirRegPtr = dir;
  1066  001282  5160               	movf	DO_Init@DO& (0+255),w,b
  1067  001284  0D05               	mullw	5
  1068  001286  0E24               	movlw	low (_DOArray+2)
  1069  001288  24F3               	addwf	243,w,c
  1070  00128A  6ED9               	movwf	fsr2l,c
  1071  00128C  0E00               	movlw	high (_DOArray+2)
  1072  00128E  20F4               	addwfc	prodh,w,c
  1073  001290  6EDA               	movwf	fsr2h,c
  1074  001292  C157  FFDE         	movff	DO_Init@dir,postinc2
  1075  001296  C158  FFDD         	movff	DO_Init@dir+1,postdec2
  1076                           
  1077                           ;DO.c: 29:     DOArray[DO].pin = pinN;
  1078  00129A  5160               	movf	DO_Init@DO& (0+255),w,b
  1079  00129C  0D05               	mullw	5
  1080  00129E  0E26               	movlw	low (_DOArray+4)
  1081  0012A0  24F3               	addwf	243,w,c
  1082  0012A2  6ED9               	movwf	fsr2l,c
  1083  0012A4  0E00               	movlw	high (_DOArray+4)
  1084  0012A6  20F4               	addwfc	prodh,w,c
  1085  0012A8  6EDA               	movwf	fsr2h,c
  1086  0012AA  C159  FFDF         	movff	DO_Init@pinN,indf2
  1087  0012AE                     
  1088                           ; BSR set to: 1
  1089                           ;DO.c: 31:     GPIO_Init_Pin(dir,pinN,(0));
  1090  0012AE  C157  F0FB         	movff	DO_Init@dir,GPIO_Init_Pin@DirRegAddress
  1091  0012B2  C158  F0FC         	movff	DO_Init@dir+1,GPIO_Init_Pin@DirRegAddress+1
  1092  0012B6  C159  F0FD         	movff	DO_Init@pinN,GPIO_Init_Pin@pin_number
  1093  0012BA  0E00               	movlw	0
  1094  0012BC  0100               	movlb	0	; () banked
  1095  0012BE  6FFE               	movwf	GPIO_Init_Pin@dir& (0+255),b
  1096  0012C0  EC62  F008         	call	_GPIO_Init_Pin	;wreg free
  1097  0012C4                     
  1098                           ;DO.c: 32:     ((*port)=(*port & ~(1<<pinN))|(state<<pinN));
  1099  0012C4  C159  F15B         	movff	DO_Init@pinN,??_DO_Init
  1100  0012C8  C15A  F15C         	movff	DO_Init@state,??_DO_Init+1
  1101  0012CC  0101               	movlb	1	; () banked
  1102  0012CE  2B5B               	incf	??_DO_Init& (0+255),f,b
  1103  0012D0  EF6C  F009         	goto	u1684
  1104  0012D4                     u1685:
  1105  0012D4  90D8               	bcf	status,0,c
  1106  0012D6  375C               	rlcf	(??_DO_Init+1)& (0+255),f,b
  1107  0012D8                     u1684:
  1108  0012D8  2F5B               	decfsz	??_DO_Init& (0+255),f,b
  1109  0012DA  EF6A  F009         	goto	u1685
  1110  0012DE  C155  FFD9         	movff	DO_Init@port,fsr2l
  1111  0012E2  C156  FFDA         	movff	DO_Init@port+1,fsr2h
  1112  0012E6  50DF               	movf	indf2,w,c
  1113  0012E8  0101               	movlb	1	; () banked
  1114  0012EA  6F5D               	movwf	(??_DO_Init+2)& (0+255),b
  1115  0012EC  C159  F15E         	movff	DO_Init@pinN,??_DO_Init+3
  1116  0012F0  0E01               	movlw	1
  1117  0012F2  6F5F               	movwf	(??_DO_Init+4)& (0+255),b
  1118  0012F4  2B5E               	incf	(??_DO_Init+3)& (0+255),f,b
  1119  0012F6  EF7F  F009         	goto	u1694
  1120  0012FA                     u1695:
  1121  0012FA  90D8               	bcf	status,0,c
  1122  0012FC  375F               	rlcf	(??_DO_Init+4)& (0+255),f,b
  1123  0012FE                     u1694:
  1124  0012FE  2F5E               	decfsz	(??_DO_Init+3)& (0+255),f,b
  1125  001300  EF7D  F009         	goto	u1695
  1126  001304  0101               	movlb	1	; () banked
  1127  001306  515F               	movf	(??_DO_Init+4)& (0+255),w,b
  1128  001308  0AFF               	xorlw	255
  1129  00130A  155D               	andwf	(??_DO_Init+2)& (0+255),w,b
  1130  00130C  115C               	iorwf	(??_DO_Init+1)& (0+255),w,b
  1131  00130E  C155  FFD9         	movff	DO_Init@port,fsr2l
  1132  001312  C156  FFDA         	movff	DO_Init@port+1,fsr2h
  1133  001316  6EDF               	movwf	indf2,c
  1134  001318                     
  1135                           ; BSR set to: 1
  1136  001318  0012               	return		;funcret
  1137  00131A                     __end_of_DO_Init:
  1138                           	opt callstack 0
  1139                           
  1140 ;; *************** function _TMR_Start *****************
  1141 ;; Defined at:
  1142 ;;		line 68 in file "OSTimer.c"
  1143 ;; Parameters:    Size  Location     Type
  1144 ;;		None
  1145 ;; Auto vars:     Size  Location     Type
  1146 ;;		None
  1147 ;; Return value:  Size  Location     Type
  1148 ;;                  1    wreg      void 
  1149 ;; Registers used:
  1150 ;;		wreg, status,2
  1151 ;; Tracked objects:
  1152 ;;		On entry : 0/0
  1153 ;;		On exit  : 0/0
  1154 ;;		Unchanged: 0/0
  1155 ;; Data sizes:     COMRAM   BANK0   BANK1   BANK2   BANK3   BANK4   BANK5   BANK6   BANK7
  1156 ;;      Params:         0       0       0       0       0       0       0       0       0
  1157 ;;      Locals:         0       0       0       0       0       0       0       0       0
  1158 ;;      Temps:          0       0       0       0       0       0       0       0       0
  1159 ;;      Totals:         0       0       0       0       0       0       0       0       0
  1160 ;;Total ram usage:        0 bytes
  1161 ;; Hardware stack levels used:    1
  1162 ;; Hardware stack levels required when called:    5
  1163 ;; This function calls:
  1164 ;;		Nothing
  1165 ;; This function is called by:
  1166 ;;		_main
  1167 ;; This function uses a non-reentrant model
  1168 ;;
  1169                           
  1170                           	psect	text4
  1171  00164E                     __ptext4:
  1172                           	opt callstack 0
  1173  00164E                     _TMR_Start:
  1174                           	opt callstack 25
  1175  00164E                     
  1176                           ;OSTimer.c: 71:     ((TMR0IF) = 0);
  1177  00164E  94F2               	bcf	4082,2,c	;volatile
  1178  001650                     
  1179                           ;OSTimer.c: 73:     ((TMR0) = 65,536 - ((5000)));
  1180  001650  0E00               	movlw	0
  1181  001652  6ED7               	movwf	215,c	;volatile
  1182  001654  0E41               	movlw	65
  1183  001656  6ED6               	movwf	214,c	;volatile
  1184  001658                     
  1185                           ;OSTimer.c: 75:     (TMR0IE = 1);
  1186  001658  8AF2               	bsf	4082,5,c	;volatile
  1187  00165A                     
  1188                           ;OSTimer.c: 76:     (GIE = 1);
  1189  00165A  8EF2               	bsf	4082,7,c	;volatile
  1190  00165C                     
  1191                           ;OSTimer.c: 78:     (TMR0ON = 1);
  1192  00165C  8ED5               	bsf	4053,7,c	;volatile
  1193  00165E  0012               	return		;funcret
  1194  001660                     __end_of_TMR_Start:
  1195                           	opt callstack 0
  1196                           
  1197 ;; *************** function _TMR_Init *****************
  1198 ;; Defined at:
  1199 ;;		line 22 in file "OSTimer.c"
  1200 ;; Parameters:    Size  Location     Type
  1201 ;;		None
  1202 ;; Auto vars:     Size  Location     Type
  1203 ;;		None
  1204 ;; Return value:  Size  Location     Type
  1205 ;;                  1    wreg      void 
  1206 ;; Registers used:
  1207 ;;		None
  1208 ;; Tracked objects:
  1209 ;;		On entry : 0/0
  1210 ;;		On exit  : 0/0
  1211 ;;		Unchanged: 0/0
  1212 ;; Data sizes:     COMRAM   BANK0   BANK1   BANK2   BANK3   BANK4   BANK5   BANK6   BANK7
  1213 ;;      Params:         0       0       0       0       0       0       0       0       0
  1214 ;;      Locals:         0       0       0       0       0       0       0       0       0
  1215 ;;      Temps:          0       0       0       0       0       0       0       0       0
  1216 ;;      Totals:         0       0       0       0       0       0       0       0       0
  1217 ;;Total ram usage:        0 bytes
  1218 ;; Hardware stack levels used:    1
  1219 ;; Hardware stack levels required when called:    5
  1220 ;; This function calls:
  1221 ;;		Nothing
  1222 ;; This function is called by:
  1223 ;;		_main
  1224 ;; This function uses a non-reentrant model
  1225 ;;
  1226                           
  1227                           	psect	text5
  1228  001660                     __ptext5:
  1229                           	opt callstack 0
  1230  001660                     _TMR_Init:
  1231                           	opt callstack 25
  1232  001660                     
  1233                           ;OSTimer.c: 26:     (PSA = 0);
  1234  001660  96D5               	bcf	4053,3,c	;volatile
  1235                           
  1236                           ;OSTimer.c: 27:     T0PS2 = 0; T0PS1 = 0; T0PS0 = 0;
  1237  001662  94D5               	bcf	4053,2,c	;volatile
  1238  001664  92D5               	bcf	4053,1,c	;volatile
  1239  001666  90D5               	bcf	4053,0,c	;volatile
  1240                           
  1241                           ;OSTimer.c: 29:     (T0CS = 0);
  1242  001668  9AD5               	bcf	4053,5,c	;volatile
  1243                           
  1244                           ;OSTimer.c: 31:     (T08BIT = 1);
  1245  00166A  8CD5               	bsf	4053,6,c	;volatile
  1246                           
  1247                           ;OSTimer.c: 33:     (TMR0ON = 0);
  1248  00166C  9ED5               	bcf	4053,7,c	;volatile
  1249  00166E  0012               	return		;funcret
  1250  001670                     __end_of_TMR_Init:
  1251                           	opt callstack 0
  1252                           
  1253 ;; *************** function _LCD_Init *****************
  1254 ;; Defined at:
  1255 ;;		line 62 in file "LCD.c"
  1256 ;; Parameters:    Size  Location     Type
  1257 ;;		None
  1258 ;; Auto vars:     Size  Location     Type
  1259 ;;		None
  1260 ;; Return value:  Size  Location     Type
  1261 ;;                  1    wreg      void 
  1262 ;; Registers used:
  1263 ;;		wreg, fsr1l, fsr1h, fsr2l, fsr2h, status,2, status,0, prodl, prodh, cstack
  1264 ;; Tracked objects:
  1265 ;;		On entry : 0/0
  1266 ;;		On exit  : 0/0
  1267 ;;		Unchanged: 0/0
  1268 ;; Data sizes:     COMRAM   BANK0   BANK1   BANK2   BANK3   BANK4   BANK5   BANK6   BANK7
  1269 ;;      Params:         0       0       0       0       0       0       0       0       0
  1270 ;;      Locals:         0       0       0       0       0       0       0       0       0
  1271 ;;      Temps:          0       0       1       0       0       0       0       0       0
  1272 ;;      Totals:         0       0       1       0       0       0       0       0       0
  1273 ;;Total ram usage:        1 bytes
  1274 ;; Hardware stack levels used:    1
  1275 ;; Hardware stack levels required when called:    9
  1276 ;; This function calls:
  1277 ;;		_GPIO_Init_Nibble
  1278 ;;		_GPIO_Init_Pin
  1279 ;;		_LCD_Data_Out
  1280 ;;		_LCD_Init_Custom_Sym
  1281 ;;		_LCD_Write_Instruction
  1282 ;; This function is called by:
  1283 ;;		_main
  1284 ;; This function uses a non-reentrant model
  1285 ;;
  1286                           
  1287                           	psect	text6
  1288  000FD8                     __ptext6:
  1289                           	opt callstack 0
  1290  000FD8                     _LCD_Init:
  1291                           	opt callstack 21
  1292  000FD8                     
  1293                           ;LCD.c: 68:     GPIO_Init_Pin(&(TRISE),(1),(0));
  1294  000FD8  0E96               	movlw	150
  1295  000FDA  0100               	movlb	0	; () banked
  1296  000FDC  6FFB               	movwf	GPIO_Init_Pin@DirRegAddress& (0+255),b
  1297  000FDE  0E0F               	movlw	15
  1298  000FE0  6FFC               	movwf	(GPIO_Init_Pin@DirRegAddress+1)& (0+255),b
  1299  000FE2  0E01               	movlw	1
  1300  000FE4  6FFD               	movwf	GPIO_Init_Pin@pin_number& (0+255),b
  1301  000FE6  0E00               	movlw	0
  1302  000FE8  6FFE               	movwf	GPIO_Init_Pin@dir& (0+255),b
  1303  000FEA  EC62  F008         	call	_GPIO_Init_Pin	;wreg free
  1304                           
  1305                           ;LCD.c: 70:     GPIO_Init_Pin(&(TRISE),(2),(0));
  1306  000FEE  0E96               	movlw	150
  1307  000FF0  0100               	movlb	0	; () banked
  1308  000FF2  6FFB               	movwf	GPIO_Init_Pin@DirRegAddress& (0+255),b
  1309  000FF4  0E0F               	movlw	15
  1310  000FF6  6FFC               	movwf	(GPIO_Init_Pin@DirRegAddress+1)& (0+255),b
  1311  000FF8  0E02               	movlw	2
  1312  000FFA  6FFD               	movwf	GPIO_Init_Pin@pin_number& (0+255),b
  1313  000FFC  0E00               	movlw	0
  1314  000FFE  6FFE               	movwf	GPIO_Init_Pin@dir& (0+255),b
  1315  001000  EC62  F008         	call	_GPIO_Init_Pin	;wreg free
  1316  001004                     
  1317                           ;LCD.c: 73:     GPIO_Init_Nibble(&(TRISD),(1),(0));
  1318  001004  0E95               	movlw	149
  1319  001006  0100               	movlb	0	; () banked
  1320  001008  6FFB               	movwf	GPIO_Init_Nibble@DirRegAddress& (0+255),b
  1321  00100A  0E0F               	movlw	15
  1322  00100C  6FFC               	movwf	(GPIO_Init_Nibble@DirRegAddress+1)& (0+255),b
  1323  00100E  0E01               	movlw	1
  1324  001010  6FFD               	movwf	GPIO_Init_Nibble@nibble_num& (0+255),b
  1325  001012  0E00               	movlw	0
  1326  001014  6FFE               	movwf	GPIO_Init_Nibble@dir& (0+255),b
  1327  001016  EC56  F007         	call	_GPIO_Init_Nibble	;wreg free
  1328  00101A                     
  1329                           ;LCD.c: 80:     _delay((unsigned long)((15)*(8000000/4000.0)));
  1330  00101A  0E27               	movlw	39
  1331  00101C  0101               	movlb	1	; () banked
  1332  00101E  6F5A               	movwf	??_LCD_Init& (0+255),b
  1333  001020  0EF5               	movlw	245
  1334  001022                     u1867:
  1335  001022  2EE8               	decfsz	wreg,f,c
  1336  001024  D7FE               	bra	u1867
  1337  001026  2F5A               	decfsz	??_LCD_Init& (0+255),f,b
  1338  001028  D7FC               	bra	u1867
  1339  00102A                     
  1340                           ;LCD.c: 83:     (((PORTE))=((PORTE) & ~(1<<(2)))|(0<<(2)));
  1341  00102A  5084               	movf	132,w,c	;volatile
  1342  00102C  0BFB               	andlw	251
  1343  00102E  6E84               	movwf	132,c	;volatile
  1344  001030                     
  1345                           ;LCD.c: 85:     (((PORTE))=((PORTE) & ~(1<<(1)))|(0<<(1)));
  1346  001030  5084               	movf	132,w,c	;volatile
  1347  001032  0BFD               	andlw	253
  1348  001034  6E84               	movwf	132,c	;volatile
  1349  001036                     
  1350                           ;LCD.c: 88:     LCD_Data_Out(LCD_FunctionReset);
  1351  001036  0E30               	movlw	48
  1352  001038  EC8A  F00A         	call	_LCD_Data_Out
  1353  00103C                     
  1354                           ;LCD.c: 89:     _delay((unsigned long)((5)*(8000000/4000.0)));
  1355  00103C  0E0D               	movlw	13
  1356  00103E  0101               	movlb	1	; () banked
  1357  001040  6F5A               	movwf	??_LCD_Init& (0+255),b
  1358  001042  0EFB               	movlw	251
  1359  001044                     u1877:
  1360  001044  2EE8               	decfsz	wreg,f,c
  1361  001046  D7FE               	bra	u1877
  1362  001048  2F5A               	decfsz	??_LCD_Init& (0+255),f,b
  1363  00104A  D7FC               	bra	u1877
  1364  00104C  D000               	nop2	
  1365  00104E                     
  1366                           ;LCD.c: 91:     LCD_Data_Out(LCD_FunctionReset);
  1367  00104E  0E30               	movlw	48
  1368  001050  EC8A  F00A         	call	_LCD_Data_Out
  1369  001054                     
  1370                           ;LCD.c: 92:     _delay((unsigned long)((150)*(8000000/4000000.0)));
  1371  001054  0E64               	movlw	100
  1372  001056                     u1887:
  1373  001056  2EE8               	decfsz	wreg,f,c
  1374  001058  D7FE               	bra	u1887
  1375  00105A                     
  1376                           ;LCD.c: 94:     LCD_Data_Out(LCD_FunctionReset);
  1377  00105A  0E30               	movlw	48
  1378  00105C  EC8A  F00A         	call	_LCD_Data_Out
  1379  001060                     
  1380                           ;LCD.c: 97:     LCD_Data_Out(LCD_FunctionSet4bit);
  1381  001060  0E28               	movlw	40
  1382  001062  EC8A  F00A         	call	_LCD_Data_Out
  1383  001066                     
  1384                           ;LCD.c: 98:     _delay((unsigned long)((50)*(8000000/4000000.0)));
  1385  001066  0E21               	movlw	33
  1386  001068                     u1897:
  1387  001068  2EE8               	decfsz	wreg,f,c
  1388  00106A  D7FE               	bra	u1897
  1389  00106C  F000               	nop	
  1390  00106E                     
  1391                           ;LCD.c: 101:     LCD_Write_Instruction(LCD_FunctionSet4bit);
  1392  00106E  0E28               	movlw	40
  1393  001070  ECDE  F00A         	call	_LCD_Write_Instruction
  1394  001074                     
  1395                           ;LCD.c: 102:     _delay((unsigned long)((50)*(8000000/4000000.0)));
  1396  001074  0E21               	movlw	33
  1397  001076                     u1907:
  1398  001076  2EE8               	decfsz	wreg,f,c
  1399  001078  D7FE               	bra	u1907
  1400  00107A  F000               	nop	
  1401  00107C                     
  1402                           ;LCD.c: 105:     LCD_Write_Instruction(LCD_DisplayOff);
  1403  00107C  0E08               	movlw	8
  1404  00107E  ECDE  F00A         	call	_LCD_Write_Instruction
  1405  001082                     
  1406                           ;LCD.c: 106:     _delay((unsigned long)((50)*(8000000/4000000.0)));
  1407  001082  0E21               	movlw	33
  1408  001084                     u1917:
  1409  001084  2EE8               	decfsz	wreg,f,c
  1410  001086  D7FE               	bra	u1917
  1411  001088  F000               	nop	
  1412  00108A                     
  1413                           ;LCD.c: 109:     LCD_Write_Instruction(LCD_Clear);
  1414  00108A  0E01               	movlw	1
  1415  00108C  ECDE  F00A         	call	_LCD_Write_Instruction
  1416  001090                     
  1417                           ;LCD.c: 110:     _delay((unsigned long)((2)*(8000000/4000.0)));
  1418  001090  0E06               	movlw	6
  1419  001092  0101               	movlb	1	; () banked
  1420  001094  6F5A               	movwf	??_LCD_Init& (0+255),b
  1421  001096  0E30               	movlw	48
  1422  001098                     u1927:
  1423  001098  2EE8               	decfsz	wreg,f,c
  1424  00109A  D7FE               	bra	u1927
  1425  00109C  2F5A               	decfsz	??_LCD_Init& (0+255),f,b
  1426  00109E  D7FC               	bra	u1927
  1427  0010A0  F000               	nop	
  1428  0010A2                     
  1429                           ;LCD.c: 113:     LCD_Write_Instruction(LCD_EntryMode);
  1430  0010A2  0E06               	movlw	6
  1431  0010A4  ECDE  F00A         	call	_LCD_Write_Instruction
  1432  0010A8                     
  1433                           ;LCD.c: 114:     _delay((unsigned long)((50)*(8000000/4000000.0)));
  1434  0010A8  0E21               	movlw	33
  1435  0010AA                     u1937:
  1436  0010AA  2EE8               	decfsz	wreg,f,c
  1437  0010AC  D7FE               	bra	u1937
  1438  0010AE  F000               	nop	
  1439  0010B0                     
  1440                           ;LCD.c: 119:     LCD_Write_Instruction(LCD_DisplayOn);
  1441  0010B0  0E0C               	movlw	12
  1442  0010B2  ECDE  F00A         	call	_LCD_Write_Instruction
  1443  0010B6                     
  1444                           ;LCD.c: 120:     _delay((unsigned long)((50)*(8000000/4000000.0)));
  1445  0010B6  0E21               	movlw	33
  1446  0010B8                     u1947:
  1447  0010B8  2EE8               	decfsz	wreg,f,c
  1448  0010BA  D7FE               	bra	u1947
  1449  0010BC  F000               	nop	
  1450  0010BE                     
  1451                           ;LCD.c: 122:     LCD_Init_Custom_Sym();
  1452  0010BE  ECF5  F004         	call	_LCD_Init_Custom_Sym	;wreg free
  1453  0010C2  0012               	return		;funcret
  1454  0010C4                     __end_of_LCD_Init:
  1455                           	opt callstack 0
  1456                           
  1457 ;; *************** function _LCD_Init_Custom_Sym *****************
  1458 ;; Defined at:
  1459 ;;		line 351 in file "LCD.c"
  1460 ;; Parameters:    Size  Location     Type
  1461 ;;		None
  1462 ;; Auto vars:     Size  Location     Type
  1463 ;;  data            8    0[BANK1 ] unsigned char [8]
  1464 ;;  i               2    8[BANK1 ] int 
  1465 ;; Return value:  Size  Location     Type
  1466 ;;                  1    wreg      void 
  1467 ;; Registers used:
  1468 ;;		wreg, fsr1l, fsr1h, fsr2l, fsr2h, status,2, status,0, cstack
  1469 ;; Tracked objects:
  1470 ;;		On entry : 0/0
  1471 ;;		On exit  : 0/0
  1472 ;;		Unchanged: 0/0
  1473 ;; Data sizes:     COMRAM   BANK0   BANK1   BANK2   BANK3   BANK4   BANK5   BANK6   BANK7
  1474 ;;      Params:         0       0       0       0       0       0       0       0       0
  1475 ;;      Locals:         0       0      10       0       0       0       0       0       0
  1476 ;;      Temps:          0       0       0       0       0       0       0       0       0
  1477 ;;      Totals:         0       0      10       0       0       0       0       0       0
  1478 ;;Total ram usage:       10 bytes
  1479 ;; Hardware stack levels used:    1
  1480 ;; Hardware stack levels required when called:    8
  1481 ;; This function calls:
  1482 ;;		_LCD_SetCGRAM
  1483 ;;		_LCD_Write_Symbol
  1484 ;; This function is called by:
  1485 ;;		_LCD_Init
  1486 ;; This function uses a non-reentrant model
  1487 ;;
  1488                           
  1489                           	psect	text7
  1490  0009EA                     __ptext7:
  1491                           	opt callstack 0
  1492  0009EA                     _LCD_Init_Custom_Sym:
  1493                           	opt callstack 21
  1494  0009EA                     
  1495                           ;LCD.c: 354:     int i;;LCD.c: 355:     uint8 data[8] = { 0x00,
  1496  0009EA  EE20  F03B         	lfsr	2,LCD_Init_Custom_Sym@F3257
  1497  0009EE  EE11  F050         	lfsr	1,LCD_Init_Custom_Sym@data
  1498  0009F2  0E07               	movlw	7
  1499  0009F4                     u1701:
  1500  0009F4  CFDB FFE3          	movff	plusw2,plusw1
  1501  0009F8  06E8               	decf	wreg,f,c
  1502  0009FA  E2FC               	bc	u1701
  1503  0009FC                     
  1504                           ;LCD.c: 363:     LCD_SetCGRAM(LCD_MOTOR1*8);
  1505  0009FC  0E00               	movlw	0
  1506  0009FE  EC1D  F00B         	call	_LCD_SetCGRAM
  1507  000A02                     
  1508                           ;LCD.c: 364:     for(i =0;i<8;i++){
  1509  000A02  0E00               	movlw	0
  1510  000A04  0101               	movlb	1	; () banked
  1511  000A06  6F59               	movwf	(LCD_Init_Custom_Sym@i+1)& (0+255),b
  1512  000A08  0E00               	movlw	0
  1513  000A0A  6F58               	movwf	LCD_Init_Custom_Sym@i& (0+255),b
  1514  000A0C                     l2058:
  1515                           
  1516                           ; BSR set to: 1
  1517                           ;LCD.c: 365:         LCD_Write_Symbol(data[i]);
  1518  000A0C  0E50               	movlw	low LCD_Init_Custom_Sym@data
  1519  000A0E  2558               	addwf	LCD_Init_Custom_Sym@i& (0+255),w,b
  1520  000A10  6ED9               	movwf	fsr2l,c
  1521  000A12  0E01               	movlw	high LCD_Init_Custom_Sym@data
  1522  000A14  2159               	addwfc	(LCD_Init_Custom_Sym@i+1)& (0+255),w,b
  1523  000A16  6EDA               	movwf	fsr2h,c
  1524  000A18  50DF               	movf	indf2,w,c
  1525  000A1A  ECB8  F00A         	call	_LCD_Write_Symbol
  1526  000A1E                     
  1527                           ;LCD.c: 366:     }
  1528  000A1E  0101               	movlb	1	; () banked
  1529  000A20  4B58               	infsnz	LCD_Init_Custom_Sym@i& (0+255),f,b
  1530  000A22  2B59               	incf	(LCD_Init_Custom_Sym@i+1)& (0+255),f,b
  1531  000A24                     
  1532                           ; BSR set to: 1
  1533  000A24  BF59               	btfsc	(LCD_Init_Custom_Sym@i+1)& (0+255),7,b
  1534  000A26  EF1E  F005         	goto	u1711
  1535  000A2A  5159               	movf	(LCD_Init_Custom_Sym@i+1)& (0+255),w,b
  1536  000A2C  E109               	bnz	u1710
  1537  000A2E  0E08               	movlw	8
  1538  000A30  5D58               	subwf	LCD_Init_Custom_Sym@i& (0+255),w,b
  1539  000A32  A0D8               	btfss	status,0,c
  1540  000A34  EF1E  F005         	goto	u1711
  1541  000A38  EF20  F005         	goto	u1710
  1542  000A3C                     u1711:
  1543  000A3C  EF06  F005         	goto	l2058
  1544  000A40                     u1710:
  1545  000A40                     
  1546                           ; BSR set to: 1
  1547                           ;LCD.c: 368:     data[0] = 0x00;
  1548  000A40  0E00               	movlw	0
  1549  000A42  6F50               	movwf	LCD_Init_Custom_Sym@data& (0+255),b
  1550                           
  1551                           ;LCD.c: 369:     data[1] = 0xF8;
  1552  000A44  0EF8               	movlw	248
  1553  000A46  6F51               	movwf	(LCD_Init_Custom_Sym@data+1)& (0+255),b
  1554                           
  1555                           ;LCD.c: 370:     data[2] = 0xF8;
  1556  000A48  0EF8               	movlw	248
  1557  000A4A  6F52               	movwf	(LCD_Init_Custom_Sym@data+2)& (0+255),b
  1558                           
  1559                           ;LCD.c: 371:     data[3] = 0x00;
  1560  000A4C  0E00               	movlw	0
  1561  000A4E  6F53               	movwf	(LCD_Init_Custom_Sym@data+3)& (0+255),b
  1562                           
  1563                           ;LCD.c: 372:     data[4] = 0x00;
  1564  000A50  0E00               	movlw	0
  1565  000A52  6F54               	movwf	(LCD_Init_Custom_Sym@data+4)& (0+255),b
  1566                           
  1567                           ;LCD.c: 373:     data[5] = 0x00;
  1568  000A54  0E00               	movlw	0
  1569  000A56  6F55               	movwf	(LCD_Init_Custom_Sym@data+5)& (0+255),b
  1570                           
  1571                           ;LCD.c: 374:     data[6] = 0x00;
  1572  000A58  0E00               	movlw	0
  1573  000A5A  6F56               	movwf	(LCD_Init_Custom_Sym@data+6)& (0+255),b
  1574                           
  1575                           ;LCD.c: 375:     data[7] = 0x00;
  1576  000A5C  0E00               	movlw	0
  1577  000A5E  6F57               	movwf	(LCD_Init_Custom_Sym@data+7)& (0+255),b
  1578  000A60                     
  1579                           ; BSR set to: 1
  1580                           ;LCD.c: 376:     LCD_SetCGRAM(LCD_MOTOR2*8);
  1581  000A60  0E08               	movlw	8
  1582  000A62  EC1D  F00B         	call	_LCD_SetCGRAM
  1583  000A66                     
  1584                           ;LCD.c: 377:     for(i =0;i<8;i++){
  1585  000A66  0E00               	movlw	0
  1586  000A68  0101               	movlb	1	; () banked
  1587  000A6A  6F59               	movwf	(LCD_Init_Custom_Sym@i+1)& (0+255),b
  1588  000A6C  0E00               	movlw	0
  1589  000A6E  6F58               	movwf	LCD_Init_Custom_Sym@i& (0+255),b
  1590  000A70                     l2074:
  1591                           
  1592                           ; BSR set to: 1
  1593                           ;LCD.c: 378:         LCD_Write_Symbol(data[i]);
  1594  000A70  0E50               	movlw	low LCD_Init_Custom_Sym@data
  1595  000A72  2558               	addwf	LCD_Init_Custom_Sym@i& (0+255),w,b
  1596  000A74  6ED9               	movwf	fsr2l,c
  1597  000A76  0E01               	movlw	high LCD_Init_Custom_Sym@data
  1598  000A78  2159               	addwfc	(LCD_Init_Custom_Sym@i+1)& (0+255),w,b
  1599  000A7A  6EDA               	movwf	fsr2h,c
  1600  000A7C  50DF               	movf	indf2,w,c
  1601  000A7E  ECB8  F00A         	call	_LCD_Write_Symbol
  1602  000A82                     
  1603                           ;LCD.c: 379:     }
  1604  000A82  0101               	movlb	1	; () banked
  1605  000A84  4B58               	infsnz	LCD_Init_Custom_Sym@i& (0+255),f,b
  1606  000A86  2B59               	incf	(LCD_Init_Custom_Sym@i+1)& (0+255),f,b
  1607  000A88                     
  1608                           ; BSR set to: 1
  1609  000A88  BF59               	btfsc	(LCD_Init_Custom_Sym@i+1)& (0+255),7,b
  1610  000A8A  EF50  F005         	goto	u1721
  1611  000A8E  5159               	movf	(LCD_Init_Custom_Sym@i+1)& (0+255),w,b
  1612  000A90  E109               	bnz	u1720
  1613  000A92  0E08               	movlw	8
  1614  000A94  5D58               	subwf	LCD_Init_Custom_Sym@i& (0+255),w,b
  1615  000A96  A0D8               	btfss	status,0,c
  1616  000A98  EF50  F005         	goto	u1721
  1617  000A9C  EF52  F005         	goto	u1720
  1618  000AA0                     u1721:
  1619  000AA0  EF38  F005         	goto	l2074
  1620  000AA4                     u1720:
  1621  000AA4                     
  1622                           ; BSR set to: 1
  1623                           ;LCD.c: 381:     data[0] = 0x00;
  1624  000AA4  0E00               	movlw	0
  1625  000AA6  6F50               	movwf	LCD_Init_Custom_Sym@data& (0+255),b
  1626                           
  1627                           ;LCD.c: 382:     data[1] = 0x03;
  1628  000AA8  0E03               	movlw	3
  1629  000AAA  6F51               	movwf	(LCD_Init_Custom_Sym@data+1)& (0+255),b
  1630                           
  1631                           ;LCD.c: 383:     data[2] = 0x03;
  1632  000AAC  0E03               	movlw	3
  1633  000AAE  6F52               	movwf	(LCD_Init_Custom_Sym@data+2)& (0+255),b
  1634                           
  1635                           ;LCD.c: 384:     data[3] = 0x00;
  1636  000AB0  0E00               	movlw	0
  1637  000AB2  6F53               	movwf	(LCD_Init_Custom_Sym@data+3)& (0+255),b
  1638                           
  1639                           ;LCD.c: 385:     data[4] = 0x00;
  1640  000AB4  0E00               	movlw	0
  1641  000AB6  6F54               	movwf	(LCD_Init_Custom_Sym@data+4)& (0+255),b
  1642                           
  1643                           ;LCD.c: 386:     data[5] = 0x00;
  1644  000AB8  0E00               	movlw	0
  1645  000ABA  6F55               	movwf	(LCD_Init_Custom_Sym@data+5)& (0+255),b
  1646                           
  1647                           ;LCD.c: 387:     data[6] = 0x00;
  1648  000ABC  0E00               	movlw	0
  1649  000ABE  6F56               	movwf	(LCD_Init_Custom_Sym@data+6)& (0+255),b
  1650                           
  1651                           ;LCD.c: 388:     data[7] = 0x00;
  1652  000AC0  0E00               	movlw	0
  1653  000AC2  6F57               	movwf	(LCD_Init_Custom_Sym@data+7)& (0+255),b
  1654  000AC4                     
  1655                           ; BSR set to: 1
  1656                           ;LCD.c: 389:     LCD_SetCGRAM(LCD_MOTOR3*8);
  1657  000AC4  0E10               	movlw	16
  1658  000AC6  EC1D  F00B         	call	_LCD_SetCGRAM
  1659  000ACA                     
  1660                           ;LCD.c: 390:     for(i =0;i<8;i++){
  1661  000ACA  0E00               	movlw	0
  1662  000ACC  0101               	movlb	1	; () banked
  1663  000ACE  6F59               	movwf	(LCD_Init_Custom_Sym@i+1)& (0+255),b
  1664  000AD0  0E00               	movlw	0
  1665  000AD2  6F58               	movwf	LCD_Init_Custom_Sym@i& (0+255),b
  1666  000AD4                     l2090:
  1667                           
  1668                           ; BSR set to: 1
  1669                           ;LCD.c: 391:         LCD_Write_Symbol(data[i]);
  1670  000AD4  0E50               	movlw	low LCD_Init_Custom_Sym@data
  1671  000AD6  2558               	addwf	LCD_Init_Custom_Sym@i& (0+255),w,b
  1672  000AD8  6ED9               	movwf	fsr2l,c
  1673  000ADA  0E01               	movlw	high LCD_Init_Custom_Sym@data
  1674  000ADC  2159               	addwfc	(LCD_Init_Custom_Sym@i+1)& (0+255),w,b
  1675  000ADE  6EDA               	movwf	fsr2h,c
  1676  000AE0  50DF               	movf	indf2,w,c
  1677  000AE2  ECB8  F00A         	call	_LCD_Write_Symbol
  1678  000AE6                     
  1679                           ;LCD.c: 392:     }
  1680  000AE6  0101               	movlb	1	; () banked
  1681  000AE8  4B58               	infsnz	LCD_Init_Custom_Sym@i& (0+255),f,b
  1682  000AEA  2B59               	incf	(LCD_Init_Custom_Sym@i+1)& (0+255),f,b
  1683  000AEC                     
  1684                           ; BSR set to: 1
  1685  000AEC  BF59               	btfsc	(LCD_Init_Custom_Sym@i+1)& (0+255),7,b
  1686  000AEE  EF82  F005         	goto	u1731
  1687  000AF2  5159               	movf	(LCD_Init_Custom_Sym@i+1)& (0+255),w,b
  1688  000AF4  E109               	bnz	u1730
  1689  000AF6  0E08               	movlw	8
  1690  000AF8  5D58               	subwf	LCD_Init_Custom_Sym@i& (0+255),w,b
  1691  000AFA  A0D8               	btfss	status,0,c
  1692  000AFC  EF82  F005         	goto	u1731
  1693  000B00  EF84  F005         	goto	u1730
  1694  000B04                     u1731:
  1695  000B04  EF6A  F005         	goto	l2090
  1696  000B08                     u1730:
  1697  000B08                     
  1698                           ; BSR set to: 1
  1699                           ;LCD.c: 395:     data[0] = 0x00;
  1700  000B08  0E00               	movlw	0
  1701  000B0A  6F50               	movwf	LCD_Init_Custom_Sym@data& (0+255),b
  1702                           
  1703                           ;LCD.c: 396:     data[1] = 0x00;
  1704  000B0C  0E00               	movlw	0
  1705  000B0E  6F51               	movwf	(LCD_Init_Custom_Sym@data+1)& (0+255),b
  1706                           
  1707                           ;LCD.c: 397:     data[2] = 0x00;
  1708  000B10  0E00               	movlw	0
  1709  000B12  6F52               	movwf	(LCD_Init_Custom_Sym@data+2)& (0+255),b
  1710                           
  1711                           ;LCD.c: 398:     data[3] = 0x00;
  1712  000B14  0E00               	movlw	0
  1713  000B16  6F53               	movwf	(LCD_Init_Custom_Sym@data+3)& (0+255),b
  1714                           
  1715                           ;LCD.c: 399:     data[4] = 0x00;
  1716  000B18  0E00               	movlw	0
  1717  000B1A  6F54               	movwf	(LCD_Init_Custom_Sym@data+4)& (0+255),b
  1718                           
  1719                           ;LCD.c: 400:     data[5] = 0x03;
  1720  000B1C  0E03               	movlw	3
  1721  000B1E  6F55               	movwf	(LCD_Init_Custom_Sym@data+5)& (0+255),b
  1722                           
  1723                           ;LCD.c: 401:     data[6] = 0x03;
  1724  000B20  0E03               	movlw	3
  1725  000B22  6F56               	movwf	(LCD_Init_Custom_Sym@data+6)& (0+255),b
  1726                           
  1727                           ;LCD.c: 402:     data[7] = 0x00;
  1728  000B24  0E00               	movlw	0
  1729  000B26  6F57               	movwf	(LCD_Init_Custom_Sym@data+7)& (0+255),b
  1730  000B28                     
  1731                           ; BSR set to: 1
  1732                           ;LCD.c: 403:     LCD_SetCGRAM(LCD_MOTOR4*8);
  1733  000B28  0E18               	movlw	24
  1734  000B2A  EC1D  F00B         	call	_LCD_SetCGRAM
  1735  000B2E                     
  1736                           ;LCD.c: 404:     for(i =0;i<8;i++){
  1737  000B2E  0E00               	movlw	0
  1738  000B30  0101               	movlb	1	; () banked
  1739  000B32  6F59               	movwf	(LCD_Init_Custom_Sym@i+1)& (0+255),b
  1740  000B34  0E00               	movlw	0
  1741  000B36  6F58               	movwf	LCD_Init_Custom_Sym@i& (0+255),b
  1742  000B38                     l2106:
  1743                           
  1744                           ; BSR set to: 1
  1745                           ;LCD.c: 405:         LCD_Write_Symbol(data[i]);
  1746  000B38  0E50               	movlw	low LCD_Init_Custom_Sym@data
  1747  000B3A  2558               	addwf	LCD_Init_Custom_Sym@i& (0+255),w,b
  1748  000B3C  6ED9               	movwf	fsr2l,c
  1749  000B3E  0E01               	movlw	high LCD_Init_Custom_Sym@data
  1750  000B40  2159               	addwfc	(LCD_Init_Custom_Sym@i+1)& (0+255),w,b
  1751  000B42  6EDA               	movwf	fsr2h,c
  1752  000B44  50DF               	movf	indf2,w,c
  1753  000B46  ECB8  F00A         	call	_LCD_Write_Symbol
  1754  000B4A                     
  1755                           ;LCD.c: 406:     }
  1756  000B4A  0101               	movlb	1	; () banked
  1757  000B4C  4B58               	infsnz	LCD_Init_Custom_Sym@i& (0+255),f,b
  1758  000B4E  2B59               	incf	(LCD_Init_Custom_Sym@i+1)& (0+255),f,b
  1759  000B50                     
  1760                           ; BSR set to: 1
  1761  000B50  BF59               	btfsc	(LCD_Init_Custom_Sym@i+1)& (0+255),7,b
  1762  000B52  EFB4  F005         	goto	u1741
  1763  000B56  5159               	movf	(LCD_Init_Custom_Sym@i+1)& (0+255),w,b
  1764  000B58  E109               	bnz	u1740
  1765  000B5A  0E08               	movlw	8
  1766  000B5C  5D58               	subwf	LCD_Init_Custom_Sym@i& (0+255),w,b
  1767  000B5E  A0D8               	btfss	status,0,c
  1768  000B60  EFB4  F005         	goto	u1741
  1769  000B64  EFB6  F005         	goto	u1740
  1770  000B68                     u1741:
  1771  000B68  EF9C  F005         	goto	l2106
  1772  000B6C                     u1740:
  1773  000B6C                     
  1774                           ; BSR set to: 1
  1775                           ;LCD.c: 409:     data[0] = 0xFF;
  1776  000B6C  6950               	setf	LCD_Init_Custom_Sym@data& (0+255),b
  1777  000B6E                     
  1778                           ; BSR set to: 1
  1779                           ;LCD.c: 410:     data[1] = 0x11;
  1780  000B6E  0E11               	movlw	17
  1781  000B70  6F51               	movwf	(LCD_Init_Custom_Sym@data+1)& (0+255),b
  1782                           
  1783                           ;LCD.c: 411:     data[2] = 0x15;
  1784  000B72  0E15               	movlw	21
  1785  000B74  6F52               	movwf	(LCD_Init_Custom_Sym@data+2)& (0+255),b
  1786                           
  1787                           ;LCD.c: 412:     data[3] = 0x15;
  1788  000B76  0E15               	movlw	21
  1789  000B78  6F53               	movwf	(LCD_Init_Custom_Sym@data+3)& (0+255),b
  1790                           
  1791                           ;LCD.c: 413:     data[4] = 0x15;
  1792  000B7A  0E15               	movlw	21
  1793  000B7C  6F54               	movwf	(LCD_Init_Custom_Sym@data+4)& (0+255),b
  1794  000B7E                     
  1795                           ; BSR set to: 1
  1796                           ;LCD.c: 414:     data[5] = 0xFF;
  1797  000B7E  6955               	setf	(LCD_Init_Custom_Sym@data+5)& (0+255),b
  1798  000B80                     
  1799                           ; BSR set to: 1
  1800                           ;LCD.c: 415:     data[6] = 0xFF;
  1801  000B80  6956               	setf	(LCD_Init_Custom_Sym@data+6)& (0+255),b
  1802                           
  1803                           ;LCD.c: 416:     data[7] = 0x04;
  1804  000B82  0E04               	movlw	4
  1805  000B84  6F57               	movwf	(LCD_Init_Custom_Sym@data+7)& (0+255),b
  1806  000B86                     
  1807                           ; BSR set to: 1
  1808                           ;LCD.c: 417:     LCD_SetCGRAM(LCD_LAMP*8);
  1809  000B86  0E20               	movlw	32
  1810  000B88  EC1D  F00B         	call	_LCD_SetCGRAM
  1811  000B8C                     
  1812                           ;LCD.c: 418:     for(i =0;i<8;i++){
  1813  000B8C  0E00               	movlw	0
  1814  000B8E  0101               	movlb	1	; () banked
  1815  000B90  6F59               	movwf	(LCD_Init_Custom_Sym@i+1)& (0+255),b
  1816  000B92  0E00               	movlw	0
  1817  000B94  6F58               	movwf	LCD_Init_Custom_Sym@i& (0+255),b
  1818  000B96                     l2126:
  1819                           
  1820                           ; BSR set to: 1
  1821                           ;LCD.c: 419:         LCD_Write_Symbol(data[i]);
  1822  000B96  0E50               	movlw	low LCD_Init_Custom_Sym@data
  1823  000B98  2558               	addwf	LCD_Init_Custom_Sym@i& (0+255),w,b
  1824  000B9A  6ED9               	movwf	fsr2l,c
  1825  000B9C  0E01               	movlw	high LCD_Init_Custom_Sym@data
  1826  000B9E  2159               	addwfc	(LCD_Init_Custom_Sym@i+1)& (0+255),w,b
  1827  000BA0  6EDA               	movwf	fsr2h,c
  1828  000BA2  50DF               	movf	indf2,w,c
  1829  000BA4  ECB8  F00A         	call	_LCD_Write_Symbol
  1830  000BA8                     
  1831                           ;LCD.c: 420:     }
  1832  000BA8  0101               	movlb	1	; () banked
  1833  000BAA  4B58               	infsnz	LCD_Init_Custom_Sym@i& (0+255),f,b
  1834  000BAC  2B59               	incf	(LCD_Init_Custom_Sym@i+1)& (0+255),f,b
  1835  000BAE                     
  1836                           ; BSR set to: 1
  1837  000BAE  BF59               	btfsc	(LCD_Init_Custom_Sym@i+1)& (0+255),7,b
  1838  000BB0  EFE3  F005         	goto	u1751
  1839  000BB4  5159               	movf	(LCD_Init_Custom_Sym@i+1)& (0+255),w,b
  1840  000BB6  E109               	bnz	u1750
  1841  000BB8  0E08               	movlw	8
  1842  000BBA  5D58               	subwf	LCD_Init_Custom_Sym@i& (0+255),w,b
  1843  000BBC  A0D8               	btfss	status,0,c
  1844  000BBE  EFE3  F005         	goto	u1751
  1845  000BC2  EFE5  F005         	goto	u1750
  1846  000BC6                     u1751:
  1847  000BC6  EFCB  F005         	goto	l2126
  1848  000BCA                     u1750:
  1849  000BCA                     
  1850                           ; BSR set to: 1
  1851                           ;LCD.c: 426:     data[0] = 0xE9;
  1852  000BCA  0EE9               	movlw	233
  1853  000BCC  6F50               	movwf	LCD_Init_Custom_Sym@data& (0+255),b
  1854                           
  1855                           ;LCD.c: 427:     data[1] = 0xF2;
  1856  000BCE  0EF2               	movlw	242
  1857  000BD0  6F51               	movwf	(LCD_Init_Custom_Sym@data+1)& (0+255),b
  1858                           
  1859                           ;LCD.c: 428:     data[2] = 0xE9;
  1860  000BD2  0EE9               	movlw	233
  1861  000BD4  6F52               	movwf	(LCD_Init_Custom_Sym@data+2)& (0+255),b
  1862                           
  1863                           ;LCD.c: 429:     data[3] = 0xF2;
  1864  000BD6  0EF2               	movlw	242
  1865  000BD8  6F53               	movwf	(LCD_Init_Custom_Sym@data+3)& (0+255),b
  1866                           
  1867                           ;LCD.c: 430:     data[4] = 0x00;
  1868  000BDA  0E00               	movlw	0
  1869  000BDC  6F54               	movwf	(LCD_Init_Custom_Sym@data+4)& (0+255),b
  1870  000BDE                     
  1871                           ; BSR set to: 1
  1872                           ;LCD.c: 431:     data[5] = 0xFF;
  1873  000BDE  6955               	setf	(LCD_Init_Custom_Sym@data+5)& (0+255),b
  1874  000BE0                     
  1875                           ; BSR set to: 1
  1876                           ;LCD.c: 432:     data[6] = 0xFF;
  1877  000BE0  6956               	setf	(LCD_Init_Custom_Sym@data+6)& (0+255),b
  1878                           
  1879                           ;LCD.c: 433:     data[7] = 0x0E;
  1880  000BE2  0E0E               	movlw	14
  1881  000BE4  6F57               	movwf	(LCD_Init_Custom_Sym@data+7)& (0+255),b
  1882  000BE6                     
  1883                           ; BSR set to: 1
  1884                           ;LCD.c: 434:     LCD_SetCGRAM(LCD_HEATER*8);
  1885  000BE6  0E28               	movlw	40
  1886  000BE8  EC1D  F00B         	call	_LCD_SetCGRAM
  1887  000BEC                     
  1888                           ;LCD.c: 435:     for(i =0;i<8;i++){
  1889  000BEC  0E00               	movlw	0
  1890  000BEE  0101               	movlb	1	; () banked
  1891  000BF0  6F59               	movwf	(LCD_Init_Custom_Sym@i+1)& (0+255),b
  1892  000BF2  0E00               	movlw	0
  1893  000BF4  6F58               	movwf	LCD_Init_Custom_Sym@i& (0+255),b
  1894  000BF6                     l2146:
  1895                           
  1896                           ; BSR set to: 1
  1897                           ;LCD.c: 436:         LCD_Write_Symbol(data[i]);
  1898  000BF6  0E50               	movlw	low LCD_Init_Custom_Sym@data
  1899  000BF8  2558               	addwf	LCD_Init_Custom_Sym@i& (0+255),w,b
  1900  000BFA  6ED9               	movwf	fsr2l,c
  1901  000BFC  0E01               	movlw	high LCD_Init_Custom_Sym@data
  1902  000BFE  2159               	addwfc	(LCD_Init_Custom_Sym@i+1)& (0+255),w,b
  1903  000C00  6EDA               	movwf	fsr2h,c
  1904  000C02  50DF               	movf	indf2,w,c
  1905  000C04  ECB8  F00A         	call	_LCD_Write_Symbol
  1906  000C08                     
  1907                           ;LCD.c: 437:     }
  1908  000C08  0101               	movlb	1	; () banked
  1909  000C0A  4B58               	infsnz	LCD_Init_Custom_Sym@i& (0+255),f,b
  1910  000C0C  2B59               	incf	(LCD_Init_Custom_Sym@i+1)& (0+255),f,b
  1911  000C0E                     
  1912                           ; BSR set to: 1
  1913  000C0E  BF59               	btfsc	(LCD_Init_Custom_Sym@i+1)& (0+255),7,b
  1914  000C10  EF13  F006         	goto	u1761
  1915  000C14  5159               	movf	(LCD_Init_Custom_Sym@i+1)& (0+255),w,b
  1916  000C16  E109               	bnz	u1760
  1917  000C18  0E08               	movlw	8
  1918  000C1A  5D58               	subwf	LCD_Init_Custom_Sym@i& (0+255),w,b
  1919  000C1C  A0D8               	btfss	status,0,c
  1920  000C1E  EF13  F006         	goto	u1761
  1921  000C22  EF15  F006         	goto	u1760
  1922  000C26                     u1761:
  1923  000C26  EFFB  F005         	goto	l2146
  1924  000C2A                     u1760:
  1925  000C2A                     
  1926                           ; BSR set to: 1
  1927                           ;LCD.c: 441:     data[0] = 0xFF;
  1928  000C2A  6950               	setf	LCD_Init_Custom_Sym@data& (0+255),b
  1929  000C2C                     
  1930                           ; BSR set to: 1
  1931                           ;LCD.c: 442:     data[1] = 0x11;
  1932  000C2C  0E11               	movlw	17
  1933  000C2E  6F51               	movwf	(LCD_Init_Custom_Sym@data+1)& (0+255),b
  1934                           
  1935                           ;LCD.c: 443:     data[2] = 0x11;
  1936  000C30  0E11               	movlw	17
  1937  000C32  6F52               	movwf	(LCD_Init_Custom_Sym@data+2)& (0+255),b
  1938                           
  1939                           ;LCD.c: 444:     data[3] = 0x11;
  1940  000C34  0E11               	movlw	17
  1941  000C36  6F53               	movwf	(LCD_Init_Custom_Sym@data+3)& (0+255),b
  1942                           
  1943                           ;LCD.c: 445:     data[4] = 0x19;
  1944  000C38  0E19               	movlw	25
  1945  000C3A  6F54               	movwf	(LCD_Init_Custom_Sym@data+4)& (0+255),b
  1946                           
  1947                           ;LCD.c: 446:     data[5] = 0x11;
  1948  000C3C  0E11               	movlw	17
  1949  000C3E  6F55               	movwf	(LCD_Init_Custom_Sym@data+5)& (0+255),b
  1950                           
  1951                           ;LCD.c: 447:     data[6] = 0x11;
  1952  000C40  0E11               	movlw	17
  1953  000C42  6F56               	movwf	(LCD_Init_Custom_Sym@data+6)& (0+255),b
  1954  000C44                     
  1955                           ; BSR set to: 1
  1956                           ;LCD.c: 448:     data[7] = 0xFF;
  1957  000C44  6957               	setf	(LCD_Init_Custom_Sym@data+7)& (0+255),b
  1958  000C46                     
  1959                           ; BSR set to: 1
  1960                           ;LCD.c: 449:     LCD_SetCGRAM(LCD_DOOR*8);
  1961  000C46  0E30               	movlw	48
  1962  000C48  EC1D  F00B         	call	_LCD_SetCGRAM
  1963  000C4C                     
  1964                           ;LCD.c: 450:     for(i =0;i<8;i++){
  1965  000C4C  0E00               	movlw	0
  1966  000C4E  0101               	movlb	1	; () banked
  1967  000C50  6F59               	movwf	(LCD_Init_Custom_Sym@i+1)& (0+255),b
  1968  000C52  0E00               	movlw	0
  1969  000C54  6F58               	movwf	LCD_Init_Custom_Sym@i& (0+255),b
  1970  000C56                     l2164:
  1971                           
  1972                           ; BSR set to: 1
  1973                           ;LCD.c: 451:         LCD_Write_Symbol(data[i]);
  1974  000C56  0E50               	movlw	low LCD_Init_Custom_Sym@data
  1975  000C58  2558               	addwf	LCD_Init_Custom_Sym@i& (0+255),w,b
  1976  000C5A  6ED9               	movwf	fsr2l,c
  1977  000C5C  0E01               	movlw	high LCD_Init_Custom_Sym@data
  1978  000C5E  2159               	addwfc	(LCD_Init_Custom_Sym@i+1)& (0+255),w,b
  1979  000C60  6EDA               	movwf	fsr2h,c
  1980  000C62  50DF               	movf	indf2,w,c
  1981  000C64  ECB8  F00A         	call	_LCD_Write_Symbol
  1982  000C68                     
  1983                           ;LCD.c: 452:     }
  1984  000C68  0101               	movlb	1	; () banked
  1985  000C6A  4B58               	infsnz	LCD_Init_Custom_Sym@i& (0+255),f,b
  1986  000C6C  2B59               	incf	(LCD_Init_Custom_Sym@i+1)& (0+255),f,b
  1987  000C6E                     
  1988                           ; BSR set to: 1
  1989  000C6E  BF59               	btfsc	(LCD_Init_Custom_Sym@i+1)& (0+255),7,b
  1990  000C70  EF43  F006         	goto	u1771
  1991  000C74  5159               	movf	(LCD_Init_Custom_Sym@i+1)& (0+255),w,b
  1992  000C76  E109               	bnz	u1770
  1993  000C78  0E08               	movlw	8
  1994  000C7A  5D58               	subwf	LCD_Init_Custom_Sym@i& (0+255),w,b
  1995  000C7C  A0D8               	btfss	status,0,c
  1996  000C7E  EF43  F006         	goto	u1771
  1997  000C82  EF45  F006         	goto	u1770
  1998  000C86                     u1771:
  1999  000C86  EF2B  F006         	goto	l2164
  2000  000C8A                     u1770:
  2001  000C8A                     
  2002                           ; BSR set to: 1
  2003  000C8A  0012               	return		;funcret
  2004  000C8C                     __end_of_LCD_Init_Custom_Sym:
  2005                           	opt callstack 0
  2006                           
  2007 ;; *************** function _LCD_Write_Symbol *****************
  2008 ;; Defined at:
  2009 ;;		line 170 in file "LCD.c"
  2010 ;; Parameters:    Size  Location     Type
  2011 ;;  sym             1    wreg     unsigned char 
  2012 ;; Auto vars:     Size  Location     Type
  2013 ;;  sym             1    1[BANK0 ] unsigned char 
  2014 ;; Return value:  Size  Location     Type
  2015 ;;                  1    wreg      void 
  2016 ;; Registers used:
  2017 ;;		wreg, status,2, status,0, cstack
  2018 ;; Tracked objects:
  2019 ;;		On entry : 0/0
  2020 ;;		On exit  : 0/0
  2021 ;;		Unchanged: 0/0
  2022 ;; Data sizes:     COMRAM   BANK0   BANK1   BANK2   BANK3   BANK4   BANK5   BANK6   BANK7
  2023 ;;      Params:         0       0       0       0       0       0       0       0       0
  2024 ;;      Locals:         0       1       0       0       0       0       0       0       0
  2025 ;;      Temps:          0       0       0       0       0       0       0       0       0
  2026 ;;      Totals:         0       1       0       0       0       0       0       0       0
  2027 ;;Total ram usage:        1 bytes
  2028 ;; Hardware stack levels used:    1
  2029 ;; Hardware stack levels required when called:    6
  2030 ;; This function calls:
  2031 ;;		_LCD_Data_Out
  2032 ;; This function is called by:
  2033 ;;		_LCD_Init_Custom_Sym
  2034 ;; This function uses a non-reentrant model
  2035 ;;
  2036                           
  2037                           	psect	text8
  2038  001570                     __ptext8:
  2039                           	opt callstack 0
  2040  001570                     _LCD_Write_Symbol:
  2041                           	opt callstack 22
  2042                           
  2043                           ; BSR set to: 1
  2044                           ;incstack = 0
  2045                           ;LCD_Write_Symbol@sym stored from wreg
  2046  001570  0100               	movlb	0	; () banked
  2047  001572  6FFC               	movwf	LCD_Write_Symbol@sym& (0+255),b
  2048  001574                     
  2049                           ;LCD.c: 170: static void LCD_Write_Symbol(uint8 sym);LCD.c: 171: {;LCD.c: 173:     (((PO
      +                          RTE))=((PORTE) & ~(1<<(2)))|(1<<(2)));
  2050  001574  5084               	movf	132,w,c	;volatile
  2051  001576  0BFB               	andlw	251
  2052  001578  0904               	iorlw	4
  2053  00157A  6E84               	movwf	132,c	;volatile
  2054                           
  2055                           ;LCD.c: 175:     (((PORTE))=((PORTE) & ~(1<<(1)))|(0<<(1)));
  2056  00157C  5084               	movf	132,w,c	;volatile
  2057  00157E  0BFD               	andlw	253
  2058  001580  6E84               	movwf	132,c	;volatile
  2059  001582                     
  2060                           ;LCD.c: 179:     LCD_Data_Out((sym>>4));
  2061  001582  0100               	movlb	0	; () banked
  2062  001584  39FC               	swapf	LCD_Write_Symbol@sym& (0+255),w,b
  2063  001586  0B0F               	andlw	15
  2064  001588  EC8A  F00A         	call	_LCD_Data_Out
  2065  00158C                     
  2066                           ;LCD.c: 181:     LCD_Data_Out(sym);
  2067  00158C  0100               	movlb	0	; () banked
  2068  00158E  51FC               	movf	LCD_Write_Symbol@sym& (0+255),w,b
  2069  001590  EC8A  F00A         	call	_LCD_Data_Out
  2070  001594  0012               	return		;funcret
  2071  001596                     __end_of_LCD_Write_Symbol:
  2072                           	opt callstack 0
  2073                           
  2074 ;; *************** function _LCD_SetCGRAM *****************
  2075 ;; Defined at:
  2076 ;;		line 454 in file "LCD.c"
  2077 ;; Parameters:    Size  Location     Type
  2078 ;;  ADDRESS         1    wreg     unsigned char 
  2079 ;; Auto vars:     Size  Location     Type
  2080 ;;  ADDRESS         1    2[BANK0 ] unsigned char 
  2081 ;; Return value:  Size  Location     Type
  2082 ;;                  1    wreg      void 
  2083 ;; Registers used:
  2084 ;;		wreg, status,2, status,0, cstack
  2085 ;; Tracked objects:
  2086 ;;		On entry : 0/0
  2087 ;;		On exit  : 0/0
  2088 ;;		Unchanged: 0/0
  2089 ;; Data sizes:     COMRAM   BANK0   BANK1   BANK2   BANK3   BANK4   BANK5   BANK6   BANK7
  2090 ;;      Params:         0       0       0       0       0       0       0       0       0
  2091 ;;      Locals:         0       1       0       0       0       0       0       0       0
  2092 ;;      Temps:          0       0       0       0       0       0       0       0       0
  2093 ;;      Totals:         0       1       0       0       0       0       0       0       0
  2094 ;;Total ram usage:        1 bytes
  2095 ;; Hardware stack levels used:    1
  2096 ;; Hardware stack levels required when called:    7
  2097 ;; This function calls:
  2098 ;;		_LCD_Write_Instruction
  2099 ;; This function is called by:
  2100 ;;		_LCD_Init_Custom_Sym
  2101 ;; This function uses a non-reentrant model
  2102 ;;
  2103                           
  2104                           	psect	text9
  2105  00163A                     __ptext9:
  2106                           	opt callstack 0
  2107  00163A                     _LCD_SetCGRAM:
  2108                           	opt callstack 21
  2109                           
  2110                           ;incstack = 0
  2111                           ;LCD_SetCGRAM@ADDRESS stored from wreg
  2112  00163A  0100               	movlb	0	; () banked
  2113  00163C  6FFD               	movwf	LCD_SetCGRAM@ADDRESS& (0+255),b
  2114  00163E                     
  2115                           ;LCD.c: 454: static void LCD_SetCGRAM(uint8 ADDRESS);LCD.c: 455: {;LCD.c: 456:     ADDRE
      +                          SS &= 0x3f;
  2116  00163E  0E3F               	movlw	63
  2117  001640  0100               	movlb	0	; () banked
  2118  001642  17FD               	andwf	LCD_SetCGRAM@ADDRESS& (0+255),f,b
  2119  001644                     
  2120                           ; BSR set to: 0
  2121                           ;LCD.c: 457:     ADDRESS |= 0x40;
  2122  001644  8DFD               	bsf	LCD_SetCGRAM@ADDRESS& (0+255),6,b
  2123  001646                     
  2124                           ; BSR set to: 0
  2125                           ;LCD.c: 458:     LCD_Write_Instruction(ADDRESS);
  2126  001646  51FD               	movf	LCD_SetCGRAM@ADDRESS& (0+255),w,b
  2127  001648  ECDE  F00A         	call	_LCD_Write_Instruction
  2128  00164C  0012               	return		;funcret
  2129  00164E                     __end_of_LCD_SetCGRAM:
  2130                           	opt callstack 0
  2131                           
  2132 ;; *************** function _LCD_Write_Instruction *****************
  2133 ;; Defined at:
  2134 ;;		line 208 in file "LCD.c"
  2135 ;; Parameters:    Size  Location     Type
  2136 ;;  inst            1    wreg     enum E3182
  2137 ;; Auto vars:     Size  Location     Type
  2138 ;;  inst            1    1[BANK0 ] enum E3182
  2139 ;; Return value:  Size  Location     Type
  2140 ;;                  1    wreg      void 
  2141 ;; Registers used:
  2142 ;;		wreg, status,2, status,0, cstack
  2143 ;; Tracked objects:
  2144 ;;		On entry : 0/0
  2145 ;;		On exit  : 0/0
  2146 ;;		Unchanged: 0/0
  2147 ;; Data sizes:     COMRAM   BANK0   BANK1   BANK2   BANK3   BANK4   BANK5   BANK6   BANK7
  2148 ;;      Params:         0       0       0       0       0       0       0       0       0
  2149 ;;      Locals:         0       1       0       0       0       0       0       0       0
  2150 ;;      Temps:          0       0       0       0       0       0       0       0       0
  2151 ;;      Totals:         0       1       0       0       0       0       0       0       0
  2152 ;;Total ram usage:        1 bytes
  2153 ;; Hardware stack levels used:    1
  2154 ;; Hardware stack levels required when called:    6
  2155 ;; This function calls:
  2156 ;;		_LCD_Data_Out
  2157 ;; This function is called by:
  2158 ;;		_LCD_Init
  2159 ;;		_LCD_SetCGRAM
  2160 ;; This function uses a non-reentrant model
  2161 ;;
  2162                           
  2163                           	psect	text10
  2164  0015BC                     __ptext10:
  2165                           	opt callstack 0
  2166  0015BC                     _LCD_Write_Instruction:
  2167                           	opt callstack 23
  2168                           
  2169                           ;incstack = 0
  2170                           ;LCD_Write_Instruction@inst stored from wreg
  2171  0015BC  0100               	movlb	0	; () banked
  2172  0015BE  6FFC               	movwf	LCD_Write_Instruction@inst& (0+255),b
  2173  0015C0                     
  2174                           ;LCD.c: 208: static void LCD_Write_Instruction(LCD_Instruction_t inst);LCD.c: 209: {;LCD
      +                          .c: 211:     (((PORTE))=((PORTE) & ~(1<<(2)))|(0<<(2)));
  2175  0015C0  5084               	movf	132,w,c	;volatile
  2176  0015C2  0BFB               	andlw	251
  2177  0015C4  6E84               	movwf	132,c	;volatile
  2178                           
  2179                           ;LCD.c: 213:     (((PORTE))=((PORTE) & ~(1<<(1)))|(0<<(1)));
  2180  0015C6  5084               	movf	132,w,c	;volatile
  2181  0015C8  0BFD               	andlw	253
  2182  0015CA  6E84               	movwf	132,c	;volatile
  2183  0015CC                     
  2184                           ;LCD.c: 215:     LCD_Data_Out((inst>>4));
  2185  0015CC  0100               	movlb	0	; () banked
  2186  0015CE  39FC               	swapf	LCD_Write_Instruction@inst& (0+255),w,b
  2187  0015D0  0B0F               	andlw	15
  2188  0015D2  EC8A  F00A         	call	_LCD_Data_Out
  2189  0015D6                     
  2190                           ;LCD.c: 216:     LCD_Data_Out(inst);
  2191  0015D6  0100               	movlb	0	; () banked
  2192  0015D8  51FC               	movf	LCD_Write_Instruction@inst& (0+255),w,b
  2193  0015DA  EC8A  F00A         	call	_LCD_Data_Out
  2194  0015DE  0012               	return		;funcret
  2195  0015E0                     __end_of_LCD_Write_Instruction:
  2196                           	opt callstack 0
  2197                           
  2198 ;; *************** function _LCD_Data_Out *****************
  2199 ;; Defined at:
  2200 ;;		line 230 in file "LCD.c"
  2201 ;; Parameters:    Size  Location     Type
  2202 ;;  byte            1    wreg     unsigned char 
  2203 ;; Auto vars:     Size  Location     Type
  2204 ;;  byte            1    0[BANK0 ] unsigned char 
  2205 ;; Return value:  Size  Location     Type
  2206 ;;                  1    wreg      void 
  2207 ;; Registers used:
  2208 ;;		wreg, status,2, status,0
  2209 ;; Tracked objects:
  2210 ;;		On entry : 0/0
  2211 ;;		On exit  : 0/0
  2212 ;;		Unchanged: 0/0
  2213 ;; Data sizes:     COMRAM   BANK0   BANK1   BANK2   BANK3   BANK4   BANK5   BANK6   BANK7
  2214 ;;      Params:         0       0       0       0       0       0       0       0       0
  2215 ;;      Locals:         0       1       0       0       0       0       0       0       0
  2216 ;;      Temps:          0       0       0       0       0       0       0       0       0
  2217 ;;      Totals:         0       1       0       0       0       0       0       0       0
  2218 ;;Total ram usage:        1 bytes
  2219 ;; Hardware stack levels used:    1
  2220 ;; Hardware stack levels required when called:    5
  2221 ;; This function calls:
  2222 ;;		Nothing
  2223 ;; This function is called by:
  2224 ;;		_LCD_Init
  2225 ;;		_LCD_Write_Symbol
  2226 ;;		_LCD_Write_Instruction
  2227 ;; This function uses a non-reentrant model
  2228 ;;
  2229                           
  2230                           	psect	text11
  2231  001514                     __ptext11:
  2232                           	opt callstack 0
  2233  001514                     _LCD_Data_Out:
  2234                           	opt callstack 23
  2235                           
  2236                           ;incstack = 0
  2237                           ;LCD_Data_Out@byte stored from wreg
  2238  001514  0100               	movlb	0	; () banked
  2239  001516  6FFB               	movwf	LCD_Data_Out@byte& (0+255),b
  2240  001518                     
  2241                           ;LCD.c: 230: static void LCD_Data_Out(uint8 byte);LCD.c: 231: {;LCD.c: 234:        (((PO
      +                          RTD))=(((PORTD))&~(0xF<<((1)*4)))); (((PORTD))=(((PORTD))|((byte<<((1)*4))&(0xF<<((1)*4)
      +                          ))));
  2242  001518  5083               	movf	131,w,c	;volatile
  2243  00151A  0B0F               	andlw	15
  2244  00151C  6E83               	movwf	131,c	;volatile
  2245  00151E  0100               	movlb	0	; () banked
  2246  001520  39FB               	swapf	LCD_Data_Out@byte& (0+255),w,b
  2247  001522  0BF0               	andlw	240
  2248  001524  0BF0               	andlw	240
  2249  001526  1083               	iorwf	131,w,c	;volatile
  2250  001528  6E83               	movwf	131,c	;volatile
  2251                           
  2252                           ;LCD.c: 237:        (((PORTE))=((PORTE) & ~(1<<(1)))|(1<<(1)));
  2253  00152A  5084               	movf	132,w,c	;volatile
  2254  00152C  0BFD               	andlw	253
  2255  00152E  0902               	iorlw	2
  2256  001530  6E84               	movwf	132,c	;volatile
  2257  001532                     
  2258                           ; BSR set to: 0
  2259                           ;LCD.c: 239:        _delay((unsigned long)((100)*(8000000/4000000.0)));
  2260  001532  0E42               	movlw	66
  2261  001534                     u1957:
  2262  001534  2EE8               	decfsz	wreg,f,c
  2263  001536  D7FE               	bra	u1957
  2264  001538  D000               	nop2	
  2265  00153A                     
  2266                           ;LCD.c: 241:        (((PORTE))=((PORTE) & ~(1<<(1)))|(0<<(1)));
  2267  00153A  5084               	movf	132,w,c	;volatile
  2268  00153C  0BFD               	andlw	253
  2269  00153E  6E84               	movwf	132,c	;volatile
  2270  001540                     
  2271                           ;LCD.c: 243:        _delay((unsigned long)((1)*(8000000/4000000.0)));
  2272  001540  D000               	nop2		;2 cycle nop
  2273  001542  0012               	return		;funcret
  2274  001544                     __end_of_LCD_Data_Out:
  2275                           	opt callstack 0
  2276                           
  2277 ;; *************** function _GPIO_Init_Pin *****************
  2278 ;; Defined at:
  2279 ;;		line 30 in file "GPIO.c"
  2280 ;; Parameters:    Size  Location     Type
  2281 ;;  DirRegAddres    2    0[BANK0 ] PTR volatile unsigned ch
  2282 ;;		 -> TRISE(1), TRISD(1), TRISC(1), TRISB(1), 
  2283 ;;  pin_number      1    2[BANK0 ] unsigned char 
  2284 ;;  dir             1    3[BANK0 ] unsigned char 
  2285 ;; Auto vars:     Size  Location     Type
  2286 ;;  ret             1    0        unsigned char 
  2287 ;; Return value:  Size  Location     Type
  2288 ;;                  1    wreg      unsigned char 
  2289 ;; Registers used:
  2290 ;;		wreg, fsr2l, fsr2h, status,2, status,0
  2291 ;; Tracked objects:
  2292 ;;		On entry : 0/0
  2293 ;;		On exit  : 0/0
  2294 ;;		Unchanged: 0/0
  2295 ;; Data sizes:     COMRAM   BANK0   BANK1   BANK2   BANK3   BANK4   BANK5   BANK6   BANK7
  2296 ;;      Params:         0       4       0       0       0       0       0       0       0
  2297 ;;      Locals:         0       1       0       0       0       0       0       0       0
  2298 ;;      Temps:          0       0       5       0       0       0       0       0       0
  2299 ;;      Totals:         0       5       5       0       0       0       0       0       0
  2300 ;;Total ram usage:       10 bytes
  2301 ;; Hardware stack levels used:    1
  2302 ;; Hardware stack levels required when called:    5
  2303 ;; This function calls:
  2304 ;;		Nothing
  2305 ;; This function is called by:
  2306 ;;		_DO_Init
  2307 ;;		_LCD_Init
  2308 ;;		_keypad_Init
  2309 ;; This function uses a non-reentrant model
  2310 ;;
  2311                           
  2312                           	psect	text12
  2313  0010C4                     __ptext12:
  2314                           	opt callstack 0
  2315  0010C4                     _GPIO_Init_Pin:
  2316                           	opt callstack 24
  2317  0010C4                     
  2318                           ;GPIO.c: 34:     if(*DirRegAddress != (TRISA) && *DirRegAddress != (TRISB) &&
  2319  0010C4  C0FB  FFD9         	movff	GPIO_Init_Pin@DirRegAddress,fsr2l
  2320  0010C8  C0FC  FFDA         	movff	GPIO_Init_Pin@DirRegAddress+1,fsr2h
  2321  0010CC  5092               	movf	146,w,c	;volatile
  2322  0010CE  18DE               	xorwf	postinc2,w,c
  2323  0010D0  B4D8               	btfsc	status,2,c
  2324  0010D2  EF6D  F008         	goto	u1531
  2325  0010D6  EF6F  F008         	goto	u1530
  2326  0010DA                     u1531:
  2327  0010DA  EFA5  F008         	goto	l2002
  2328  0010DE                     u1530:
  2329  0010DE  C0FB  FFD9         	movff	GPIO_Init_Pin@DirRegAddress,fsr2l
  2330  0010E2  C0FC  FFDA         	movff	GPIO_Init_Pin@DirRegAddress+1,fsr2h
  2331  0010E6  5093               	movf	147,w,c	;volatile
  2332  0010E8  18DE               	xorwf	postinc2,w,c
  2333  0010EA  B4D8               	btfsc	status,2,c
  2334  0010EC  EF7A  F008         	goto	u1541
  2335  0010F0  EF7C  F008         	goto	u1540
  2336  0010F4                     u1541:
  2337  0010F4  EFA5  F008         	goto	l2002
  2338  0010F8                     u1540:
  2339  0010F8  C0FB  FFD9         	movff	GPIO_Init_Pin@DirRegAddress,fsr2l
  2340  0010FC  C0FC  FFDA         	movff	GPIO_Init_Pin@DirRegAddress+1,fsr2h
  2341  001100  5094               	movf	148,w,c	;volatile
  2342  001102  18DE               	xorwf	postinc2,w,c
  2343  001104  B4D8               	btfsc	status,2,c
  2344  001106  EF87  F008         	goto	u1551
  2345  00110A  EF89  F008         	goto	u1550
  2346  00110E                     u1551:
  2347  00110E  EFA5  F008         	goto	l2002
  2348  001112                     u1550:
  2349  001112  C0FB  FFD9         	movff	GPIO_Init_Pin@DirRegAddress,fsr2l
  2350  001116  C0FC  FFDA         	movff	GPIO_Init_Pin@DirRegAddress+1,fsr2h
  2351  00111A  5095               	movf	149,w,c	;volatile
  2352  00111C  18DE               	xorwf	postinc2,w,c
  2353  00111E  B4D8               	btfsc	status,2,c
  2354  001120  EF94  F008         	goto	u1561
  2355  001124  EF96  F008         	goto	u1560
  2356  001128                     u1561:
  2357  001128  EFA5  F008         	goto	l2002
  2358  00112C                     u1560:
  2359  00112C  C0FB  FFD9         	movff	GPIO_Init_Pin@DirRegAddress,fsr2l
  2360  001130  C0FC  FFDA         	movff	GPIO_Init_Pin@DirRegAddress+1,fsr2h
  2361  001134  5096               	movf	150,w,c	;volatile
  2362  001136  18DE               	xorwf	postinc2,w,c
  2363  001138  B4D8               	btfsc	status,2,c
  2364  00113A  EFA1  F008         	goto	u1571
  2365  00113E  EFA3  F008         	goto	u1570
  2366  001142                     u1571:
  2367  001142  EFA5  F008         	goto	l2002
  2368  001146                     u1570:
  2369  001146                     
  2370                           ;GPIO.c: 40:     }
  2371  001146  EFCF  F008         	goto	l24
  2372  00114A                     l2002:
  2373                           
  2374                           ;GPIO.c: 42:     {;GPIO.c: 43:         ((*DirRegAddress)=(*DirRegAddress & ~(1<<pin_numb
      +                          er))|(dir<<pin_number));
  2375  00114A  C0FD  F150         	movff	GPIO_Init_Pin@pin_number,??_GPIO_Init_Pin
  2376  00114E  C0FE  F151         	movff	GPIO_Init_Pin@dir,??_GPIO_Init_Pin+1
  2377  001152  0101               	movlb	1	; () banked
  2378  001154  2B50               	incf	??_GPIO_Init_Pin& (0+255),f,b
  2379  001156  EFAF  F008         	goto	u1584
  2380  00115A                     u1585:
  2381  00115A  90D8               	bcf	status,0,c
  2382  00115C  3751               	rlcf	(??_GPIO_Init_Pin+1)& (0+255),f,b
  2383  00115E                     u1584:
  2384  00115E  2F50               	decfsz	??_GPIO_Init_Pin& (0+255),f,b
  2385  001160  EFAD  F008         	goto	u1585
  2386  001164  C0FB  FFD9         	movff	GPIO_Init_Pin@DirRegAddress,fsr2l
  2387  001168  C0FC  FFDA         	movff	GPIO_Init_Pin@DirRegAddress+1,fsr2h
  2388  00116C  50DF               	movf	indf2,w,c
  2389  00116E  0101               	movlb	1	; () banked
  2390  001170  6F52               	movwf	(??_GPIO_Init_Pin+2)& (0+255),b
  2391  001172  C0FD  F153         	movff	GPIO_Init_Pin@pin_number,??_GPIO_Init_Pin+3
  2392  001176  0E01               	movlw	1
  2393  001178  6F54               	movwf	(??_GPIO_Init_Pin+4)& (0+255),b
  2394  00117A  2B53               	incf	(??_GPIO_Init_Pin+3)& (0+255),f,b
  2395  00117C  EFC2  F008         	goto	u1594
  2396  001180                     u1595:
  2397  001180  90D8               	bcf	status,0,c
  2398  001182  3754               	rlcf	(??_GPIO_Init_Pin+4)& (0+255),f,b
  2399  001184                     u1594:
  2400  001184  2F53               	decfsz	(??_GPIO_Init_Pin+3)& (0+255),f,b
  2401  001186  EFC0  F008         	goto	u1595
  2402  00118A  0101               	movlb	1	; () banked
  2403  00118C  5154               	movf	(??_GPIO_Init_Pin+4)& (0+255),w,b
  2404  00118E  0AFF               	xorlw	255
  2405  001190  1552               	andwf	(??_GPIO_Init_Pin+2)& (0+255),w,b
  2406  001192  1151               	iorwf	(??_GPIO_Init_Pin+1)& (0+255),w,b
  2407  001194  C0FB  FFD9         	movff	GPIO_Init_Pin@DirRegAddress,fsr2l
  2408  001198  C0FC  FFDA         	movff	GPIO_Init_Pin@DirRegAddress+1,fsr2h
  2409  00119C  6EDF               	movwf	indf2,c
  2410  00119E                     l24:
  2411  00119E  0012               	return		;funcret
  2412  0011A0                     __end_of_GPIO_Init_Pin:
  2413                           	opt callstack 0
  2414                           
  2415 ;; *************** function _GPIO_Init_Nibble *****************
  2416 ;; Defined at:
  2417 ;;		line 49 in file "GPIO.c"
  2418 ;; Parameters:    Size  Location     Type
  2419 ;;  DirRegAddres    2    0[BANK0 ] PTR volatile unsigned ch
  2420 ;;		 -> TRISD(1), 
  2421 ;;  nibble_num      1    2[BANK0 ] unsigned char 
  2422 ;;  dir             1    3[BANK0 ] unsigned char 
  2423 ;; Auto vars:     Size  Location     Type
  2424 ;;  ret             1    0        unsigned char 
  2425 ;; Return value:  Size  Location     Type
  2426 ;;                  1    wreg      unsigned char 
  2427 ;; Registers used:
  2428 ;;		wreg, fsr2l, fsr2h, status,2, status,0, prodl, prodh
  2429 ;; Tracked objects:
  2430 ;;		On entry : 0/0
  2431 ;;		On exit  : 0/0
  2432 ;;		Unchanged: 0/0
  2433 ;; Data sizes:     COMRAM   BANK0   BANK1   BANK2   BANK3   BANK4   BANK5   BANK6   BANK7
  2434 ;;      Params:         0       4       0       0       0       0       0       0       0
  2435 ;;      Locals:         0       0       3       0       0       0       0       0       0
  2436 ;;      Temps:          0       0       3       0       0       0       0       0       0
  2437 ;;      Totals:         0       4       6       0       0       0       0       0       0
  2438 ;;Total ram usage:       10 bytes
  2439 ;; Hardware stack levels used:    1
  2440 ;; Hardware stack levels required when called:    5
  2441 ;; This function calls:
  2442 ;;		Nothing
  2443 ;; This function is called by:
  2444 ;;		_LCD_Init
  2445 ;; This function uses a non-reentrant model
  2446 ;;
  2447                           
  2448                           	psect	text13
  2449  000EAC                     __ptext13:
  2450                           	opt callstack 0
  2451  000EAC                     _GPIO_Init_Nibble:
  2452                           	opt callstack 24
  2453  000EAC                     
  2454                           ;GPIO.c: 53:     if(*DirRegAddress != (TRISA) && *DirRegAddress != (TRISB) &&
  2455  000EAC  C0FB  FFD9         	movff	GPIO_Init_Nibble@DirRegAddress,fsr2l
  2456  000EB0  C0FC  FFDA         	movff	GPIO_Init_Nibble@DirRegAddress+1,fsr2h
  2457  000EB4  5092               	movf	146,w,c	;volatile
  2458  000EB6  18DE               	xorwf	postinc2,w,c
  2459  000EB8  B4D8               	btfsc	status,2,c
  2460  000EBA  EF61  F007         	goto	u1601
  2461  000EBE  EF63  F007         	goto	u1600
  2462  000EC2                     u1601:
  2463  000EC2  EF99  F007         	goto	l2032
  2464  000EC6                     u1600:
  2465  000EC6  C0FB  FFD9         	movff	GPIO_Init_Nibble@DirRegAddress,fsr2l
  2466  000ECA  C0FC  FFDA         	movff	GPIO_Init_Nibble@DirRegAddress+1,fsr2h
  2467  000ECE  5093               	movf	147,w,c	;volatile
  2468  000ED0  18DE               	xorwf	postinc2,w,c
  2469  000ED2  B4D8               	btfsc	status,2,c
  2470  000ED4  EF6E  F007         	goto	u1611
  2471  000ED8  EF70  F007         	goto	u1610
  2472  000EDC                     u1611:
  2473  000EDC  EF99  F007         	goto	l2032
  2474  000EE0                     u1610:
  2475  000EE0  C0FB  FFD9         	movff	GPIO_Init_Nibble@DirRegAddress,fsr2l
  2476  000EE4  C0FC  FFDA         	movff	GPIO_Init_Nibble@DirRegAddress+1,fsr2h
  2477  000EE8  5094               	movf	148,w,c	;volatile
  2478  000EEA  18DE               	xorwf	postinc2,w,c
  2479  000EEC  B4D8               	btfsc	status,2,c
  2480  000EEE  EF7B  F007         	goto	u1621
  2481  000EF2  EF7D  F007         	goto	u1620
  2482  000EF6                     u1621:
  2483  000EF6  EF99  F007         	goto	l2032
  2484  000EFA                     u1620:
  2485  000EFA  C0FB  FFD9         	movff	GPIO_Init_Nibble@DirRegAddress,fsr2l
  2486  000EFE  C0FC  FFDA         	movff	GPIO_Init_Nibble@DirRegAddress+1,fsr2h
  2487  000F02  5095               	movf	149,w,c	;volatile
  2488  000F04  18DE               	xorwf	postinc2,w,c
  2489  000F06  B4D8               	btfsc	status,2,c
  2490  000F08  EF88  F007         	goto	u1631
  2491  000F0C  EF8A  F007         	goto	u1630
  2492  000F10                     u1631:
  2493  000F10  EF99  F007         	goto	l2032
  2494  000F14                     u1630:
  2495  000F14  C0FB  FFD9         	movff	GPIO_Init_Nibble@DirRegAddress,fsr2l
  2496  000F18  C0FC  FFDA         	movff	GPIO_Init_Nibble@DirRegAddress+1,fsr2h
  2497  000F1C  5096               	movf	150,w,c	;volatile
  2498  000F1E  18DE               	xorwf	postinc2,w,c
  2499  000F20  B4D8               	btfsc	status,2,c
  2500  000F22  EF95  F007         	goto	u1641
  2501  000F26  EF97  F007         	goto	u1640
  2502  000F2A                     u1641:
  2503  000F2A  EF99  F007         	goto	l2032
  2504  000F2E                     u1640:
  2505  000F2E                     
  2506                           ;GPIO.c: 59:     }
  2507  000F2E  EFEB  F007         	goto	l33
  2508  000F32                     l2032:
  2509                           
  2510                           ;GPIO.c: 61:     {;GPIO.c: 62:         ((*DirRegAddress)= ((*DirRegAddress)& ~(0xF<<(nib
      +                          ble_num*4)))); ((*DirRegAddress)=((*DirRegAddress)|(((dir)?(~0):(0))&(0xF<<(nibble_num*4
      +                          )))));
  2511  000F32  C0FB  FFD9         	movff	GPIO_Init_Nibble@DirRegAddress,fsr2l
  2512  000F36  C0FC  FFDA         	movff	GPIO_Init_Nibble@DirRegAddress+1,fsr2h
  2513  000F3A  50DF               	movf	indf2,w,c
  2514  000F3C  0101               	movlb	1	; () banked
  2515  000F3E  6F50               	movwf	??_GPIO_Init_Nibble& (0+255),b
  2516  000F40  0100               	movlb	0	; () banked
  2517  000F42  51FD               	movf	GPIO_Init_Nibble@nibble_num& (0+255),w,b
  2518  000F44  0D04               	mullw	4
  2519  000F46  CFF3 F151          	movff	prodl,??_GPIO_Init_Nibble+1
  2520  000F4A  0E0F               	movlw	15
  2521  000F4C  0101               	movlb	1	; () banked
  2522  000F4E  6F52               	movwf	(??_GPIO_Init_Nibble+2)& (0+255),b
  2523  000F50  2B51               	incf	(??_GPIO_Init_Nibble+1)& (0+255),f,b
  2524  000F52  EFAD  F007         	goto	u1654
  2525  000F56                     u1655:
  2526  000F56  90D8               	bcf	status,0,c
  2527  000F58  3752               	rlcf	(??_GPIO_Init_Nibble+2)& (0+255),f,b
  2528  000F5A                     u1654:
  2529  000F5A  2F51               	decfsz	(??_GPIO_Init_Nibble+1)& (0+255),f,b
  2530  000F5C  EFAB  F007         	goto	u1655
  2531  000F60  0101               	movlb	1	; () banked
  2532  000F62  5152               	movf	(??_GPIO_Init_Nibble+2)& (0+255),w,b
  2533  000F64  0AFF               	xorlw	255
  2534  000F66  1550               	andwf	??_GPIO_Init_Nibble& (0+255),w,b
  2535  000F68  C0FB  FFD9         	movff	GPIO_Init_Nibble@DirRegAddress,fsr2l
  2536  000F6C  C0FC  FFDA         	movff	GPIO_Init_Nibble@DirRegAddress+1,fsr2h
  2537  000F70  6EDF               	movwf	indf2,c
  2538  000F72                     
  2539                           ; BSR set to: 1
  2540  000F72  0100               	movlb	0	; () banked
  2541  000F74  51FE               	movf	GPIO_Init_Nibble@dir& (0+255),w,b
  2542  000F76  A4D8               	btfss	status,2,c
  2543  000F78  EFC0  F007         	goto	u1661
  2544  000F7C  EFC2  F007         	goto	u1660
  2545  000F80                     u1661:
  2546  000F80  EFC9  F007         	goto	l30
  2547  000F84                     u1660:
  2548  000F84                     
  2549                           ; BSR set to: 0
  2550  000F84  0E00               	movlw	0
  2551  000F86  0101               	movlb	1	; () banked
  2552  000F88  6F55               	movwf	(_GPIO_Init_Nibble$44+1)& (0+255),b
  2553  000F8A  0E00               	movlw	0
  2554  000F8C  6F54               	movwf	_GPIO_Init_Nibble$44& (0+255),b
  2555  000F8E  EFCC  F007         	goto	l2038
  2556  000F92                     l30:
  2557                           
  2558                           ; BSR set to: 0
  2559  000F92  0101               	movlb	1	; () banked
  2560  000F94  6954               	setf	_GPIO_Init_Nibble$44& (0+255),b
  2561  000F96  6955               	setf	(_GPIO_Init_Nibble$44+1)& (0+255),b
  2562  000F98                     l2038:
  2563                           
  2564                           ; BSR set to: 1
  2565  000F98  C0FB  FFD9         	movff	GPIO_Init_Nibble@DirRegAddress,fsr2l
  2566  000F9C  C0FC  FFDA         	movff	GPIO_Init_Nibble@DirRegAddress+1,fsr2h
  2567  000FA0  50DF               	movf	indf2,w,c
  2568  000FA2  6F50               	movwf	??_GPIO_Init_Nibble& (0+255),b
  2569  000FA4  0100               	movlb	0	; () banked
  2570  000FA6  51FD               	movf	GPIO_Init_Nibble@nibble_num& (0+255),w,b
  2571  000FA8  0D04               	mullw	4
  2572  000FAA  CFF3 F151          	movff	prodl,??_GPIO_Init_Nibble+1
  2573  000FAE  0E0F               	movlw	15
  2574  000FB0  0101               	movlb	1	; () banked
  2575  000FB2  6F52               	movwf	(??_GPIO_Init_Nibble+2)& (0+255),b
  2576  000FB4  2B51               	incf	(??_GPIO_Init_Nibble+1)& (0+255),f,b
  2577  000FB6  EFDF  F007         	goto	u1674
  2578  000FBA                     u1675:
  2579  000FBA  90D8               	bcf	status,0,c
  2580  000FBC  3752               	rlcf	(??_GPIO_Init_Nibble+2)& (0+255),f,b
  2581  000FBE                     u1674:
  2582  000FBE  2F51               	decfsz	(??_GPIO_Init_Nibble+1)& (0+255),f,b
  2583  000FC0  EFDD  F007         	goto	u1675
  2584  000FC4  0101               	movlb	1	; () banked
  2585  000FC6  5152               	movf	(??_GPIO_Init_Nibble+2)& (0+255),w,b
  2586  000FC8  1554               	andwf	_GPIO_Init_Nibble$44& (0+255),w,b
  2587  000FCA  1150               	iorwf	??_GPIO_Init_Nibble& (0+255),w,b
  2588  000FCC  C0FB  FFD9         	movff	GPIO_Init_Nibble@DirRegAddress,fsr2l
  2589  000FD0  C0FC  FFDA         	movff	GPIO_Init_Nibble@DirRegAddress+1,fsr2h
  2590  000FD4  6EDF               	movwf	indf2,c
  2591  000FD6                     l33:
  2592  000FD6  0012               	return		;funcret
  2593  000FD8                     __end_of_GPIO_Init_Nibble:
  2594                           	opt callstack 0
  2595                           
  2596 ;; *************** function _TMR0_ISR *****************
  2597 ;; Defined at:
  2598 ;;		line 39 in file "OSTimer.c"
  2599 ;; Parameters:    Size  Location     Type
  2600 ;;		None
  2601 ;; Auto vars:     Size  Location     Type
  2602 ;;		None
  2603 ;; Return value:  Size  Location     Type
  2604 ;;                  1    wreg      void 
  2605 ;; Registers used:
  2606 ;;		wreg, fsr1l, fsr1h, fsr2l, fsr2h, status,2, status,0, prodl, prodh, cstack
  2607 ;; Tracked objects:
  2608 ;;		On entry : 0/0
  2609 ;;		On exit  : 0/0
  2610 ;;		Unchanged: 0/0
  2611 ;; Data sizes:     COMRAM   BANK0   BANK1   BANK2   BANK3   BANK4   BANK5   BANK6   BANK7
  2612 ;;      Params:         0       0       0       0       0       0       0       0       0
  2613 ;;      Locals:         0       0       0       0       0       0       0       0       0
  2614 ;;      Temps:          6       0       0       0       0       0       0       0       0
  2615 ;;      Totals:         6       0       0       0       0       0       0       0       0
  2616 ;;Total ram usage:        6 bytes
  2617 ;; Hardware stack levels used:    1
  2618 ;; Hardware stack levels required when called:    4
  2619 ;; This function calls:
  2620 ;;		_LCD_SetSymbol
  2621 ;;		_LCD_Update
  2622 ;;		_keypad_Update
  2623 ;; This function is called by:
  2624 ;;		Interrupt level 2
  2625 ;; This function uses a non-reentrant model
  2626 ;;
  2627                           
  2628                           	psect	intcode
  2629  000008                     __pintcode:
  2630                           	opt callstack 0
  2631  000008                     _TMR0_ISR:
  2632                           	opt callstack 21
  2633                           
  2634                           ;incstack = 0
  2635  000008  8245               	bsf	int$flags,1,c	;set compiler interrupt flag (level 2)
  2636  00000A  EDE4  F009         	call	int_func,f	;refresh shadow registers
  2637                           
  2638                           	psect	intcode_body
  2639  0013C8                     __pintcode_body:
  2640                           	opt callstack 21
  2641  0013C8                     int_func:
  2642                           	opt callstack 21
  2643  0013C8  0006               	pop		; remove dummy address from shadow register refresh
  2644  0013CA  CFE1 F01C          	movff	fsr1l,??_TMR0_ISR
  2645  0013CE  CFE2 F01D          	movff	fsr1h,??_TMR0_ISR+1
  2646  0013D2  CFD9 F01E          	movff	fsr2l,??_TMR0_ISR+2
  2647  0013D6  CFDA F01F          	movff	fsr2h,??_TMR0_ISR+3
  2648  0013DA  CFF3 F020          	movff	prodl,??_TMR0_ISR+4
  2649  0013DE  CFF4 F021          	movff	prodh,??_TMR0_ISR+5
  2650  0013E2                     
  2651                           ;OSTimer.c: 41:     static uint8 index = 0;;OSTimer.c: 43:     static uint16 counter = 0
      +                          ;;OSTimer.c: 46:     tempCounter+=(5);
  2652  0013E2  0E05               	movlw	5
  2653  0013E4  2633               	addwf	_tempCounter^0,f,c
  2654  0013E6  0E00               	movlw	0
  2655  0013E8  2234               	addwfc	(_tempCounter+1)^0,f,c
  2656  0013EA                     
  2657                           ;OSTimer.c: 48:     keypad_Update();
  2658  0013EA  EC09  F000         	call	_keypad_Update	;wreg free
  2659  0013EE                     
  2660                           ;OSTimer.c: 49:     LCD_Update();
  2661  0013EE  EC46  F006         	call	_LCD_Update	;wreg free
  2662  0013F2                     
  2663                           ;OSTimer.c: 52:     if(tempCounter >= 4000){
  2664  0013F2  0EA0               	movlw	160
  2665  0013F4  5C33               	subwf	_tempCounter^0,w,c
  2666  0013F6  0E0F               	movlw	15
  2667  0013F8  5834               	subwfb	(_tempCounter+1)^0,w,c
  2668  0013FA  A0D8               	btfss	status,0,c
  2669  0013FC  EF02  F00A         	goto	i2u151_41
  2670  001400  EF04  F00A         	goto	i2u151_40
  2671  001404                     i2u151_41:
  2672  001404  EF1D  F00A         	goto	i2l185
  2673  001408                     i2u151_40:
  2674  001408                     
  2675                           ;OSTimer.c: 53:         tempCounter = 0;
  2676  001408  0E00               	movlw	0
  2677  00140A  6E34               	movwf	(_tempCounter+1)^0,c
  2678  00140C  0E00               	movlw	0
  2679  00140E  6E33               	movwf	_tempCounter^0,c
  2680  001410                     
  2681                           ;OSTimer.c: 55:         LCD_SetSymbol(LCD_DOOR,1,counter);
  2682  001410  0E01               	movlw	1
  2683  001412  6E09               	movwf	LCD_SetSymbol@row^0,c
  2684  001414  C031  F00A         	movff	TMR0_ISR@counter,LCD_SetSymbol@column
  2685  001418  0E06               	movlw	6
  2686  00141A  EC8D  F009         	call	_LCD_SetSymbol
  2687  00141E                     
  2688                           ;OSTimer.c: 56:         counter++;
  2689  00141E  4A31               	infsnz	TMR0_ISR@counter^0,f,c
  2690  001420  2A32               	incf	(TMR0_ISR@counter+1)^0,f,c
  2691  001422                     
  2692                           ;OSTimer.c: 57:         if(counter == 16)
  2693  001422  0E10               	movlw	16
  2694  001424  1831               	xorwf	TMR0_ISR@counter^0,w,c
  2695  001426  1032               	iorwf	(TMR0_ISR@counter+1)^0,w,c
  2696  001428  A4D8               	btfss	status,2,c
  2697  00142A  EF19  F00A         	goto	i2u152_41
  2698  00142E  EF1B  F00A         	goto	i2u152_40
  2699  001432                     i2u152_41:
  2700  001432  EF1D  F00A         	goto	i2l185
  2701  001436                     i2u152_40:
  2702  001436                     
  2703                           ;OSTimer.c: 58:         {counter=-1;}
  2704  001436  6831               	setf	TMR0_ISR@counter^0,c
  2705  001438  6832               	setf	(TMR0_ISR@counter+1)^0,c
  2706  00143A                     i2l185:
  2707                           
  2708                           ;OSTimer.c: 63:     ((TMR0IF) = 0);
  2709  00143A  94F2               	bcf	4082,2,c	;volatile
  2710  00143C                     
  2711                           ;OSTimer.c: 65:     ((TMR0) = 65,536 - ((5000)));
  2712  00143C  0E00               	movlw	0
  2713  00143E  6ED7               	movwf	215,c	;volatile
  2714  001440  0E41               	movlw	65
  2715  001442  6ED6               	movwf	214,c	;volatile
  2716  001444  C021  FFF4         	movff	??_TMR0_ISR+5,prodh
  2717  001448  C020  FFF3         	movff	??_TMR0_ISR+4,prodl
  2718  00144C  C01F  FFDA         	movff	??_TMR0_ISR+3,fsr2h
  2719  001450  C01E  FFD9         	movff	??_TMR0_ISR+2,fsr2l
  2720  001454  C01D  FFE2         	movff	??_TMR0_ISR+1,fsr1h
  2721  001458  C01C  FFE1         	movff	??_TMR0_ISR,fsr1l
  2722  00145C  9245               	bcf	int$flags,1,c	;clear compiler interrupt flag (level 2)
  2723  00145E  0011               	retfie		f
  2724  001460                     __end_of_TMR0_ISR:
  2725                           	opt callstack 0
  2726                           
  2727 ;; *************** function _keypad_Update *****************
  2728 ;; Defined at:
  2729 ;;		line 138 in file "Keypad.c"
  2730 ;; Parameters:    Size  Location     Type
  2731 ;;		None
  2732 ;; Auto vars:     Size  Location     Type
  2733 ;;  i               2   25[COMRAM] int 
  2734 ;; Return value:  Size  Location     Type
  2735 ;;                  1    wreg      void 
  2736 ;; Registers used:
  2737 ;;		wreg, fsr1l, fsr1h, fsr2l, fsr2h, status,2, status,0, prodl, prodh, cstack
  2738 ;; Tracked objects:
  2739 ;;		On entry : 0/0
  2740 ;;		On exit  : 0/0
  2741 ;;		Unchanged: 0/0
  2742 ;; Data sizes:     COMRAM   BANK0   BANK1   BANK2   BANK3   BANK4   BANK5   BANK6   BANK7
  2743 ;;      Params:         0       0       0       0       0       0       0       0       0
  2744 ;;      Locals:         2       0       0       0       0       0       0       0       0
  2745 ;;      Temps:          9       0       0       0       0       0       0       0       0
  2746 ;;      Totals:        11       0       0       0       0       0       0       0       0
  2747 ;;Total ram usage:       11 bytes
  2748 ;; Hardware stack levels used:    1
  2749 ;; Hardware stack levels required when called:    2
  2750 ;; This function calls:
  2751 ;;		_LCD_SetSymbol
  2752 ;;		___wmul
  2753 ;; This function is called by:
  2754 ;;		_TMR0_ISR
  2755 ;; This function uses a non-reentrant model
  2756 ;;
  2757                           
  2758                           	psect	text15
  2759  000012                     __ptext15:
  2760                           	opt callstack 0
  2761  000012                     _keypad_Update:
  2762                           	opt callstack 22
  2763  000012                     
  2764                           ;Keypad.c: 140:     int i;;Keypad.c: 141:     tick_counter += (5);
  2765  000012  0E05               	movlw	5
  2766  000014  2637               	addwf	Keypad@tick_counter^0,f,c
  2767                           
  2768                           ;Keypad.c: 142:     if(tick_counter != (10)){
  2769  000016  0E0A               	movlw	10
  2770  000018  1837               	xorwf	Keypad@tick_counter^0,w,c
  2771  00001A  B4D8               	btfsc	status,2,c
  2772  00001C  EF12  F000         	goto	i2u121_41
  2773  000020  EF14  F000         	goto	i2u121_40
  2774  000024                     i2u121_41:
  2775  000024  EF65  F000         	goto	i2l1788
  2776  000028                     i2u121_40:
  2777  000028                     
  2778                           ;Keypad.c: 144:         ((*keypad.KP_O_Pins[current_column].portRegPtr)=(*keypad.KP_O_Pi
      +                          ns[current_column].portRegPtr & ~(1<<keypad.KP_O_Pins[current_column].pin))|((0)<<keypad
      +                          .KP_O_Pins[current_column].pin));
  2779  000028  5038               	movf	_current_column^0,w,c
  2780  00002A  0D05               	mullw	5
  2781  00002C  0ED8               	movlw	low _keypad
  2782  00002E  24F3               	addwf	243,w,c
  2783  000030  6ED9               	movwf	fsr2l,c
  2784  000032  0E00               	movlw	high _keypad
  2785  000034  20F4               	addwfc	prodh,w,c
  2786  000036  6EDA               	movwf	fsr2h,c
  2787  000038  CFDE F011          	movff	postinc2,??_keypad_Update
  2788  00003C  CFDD F012          	movff	postdec2,??_keypad_Update+1
  2789  000040  C011  FFD9         	movff	??_keypad_Update,fsr2l
  2790  000044  C012  FFDA         	movff	??_keypad_Update+1,fsr2h
  2791  000048  5038               	movf	_current_column^0,w,c
  2792  00004A  0D05               	mullw	5
  2793  00004C  0EDC               	movlw	low (_keypad+4)
  2794  00004E  24F3               	addwf	243,w,c
  2795  000050  6EE1               	movwf	fsr1l,c
  2796  000052  0E00               	movlw	high (_keypad+4)
  2797  000054  20F4               	addwfc	prodh,w,c
  2798  000056  6EE2               	movwf	fsr1h,c
  2799  000058  50E7               	movf	indf1,w,c
  2800  00005A  6E13               	movwf	(??_keypad_Update+2)^0,c
  2801  00005C  0E00               	movlw	0
  2802  00005E  6E14               	movwf	(??_keypad_Update+3)^0,c
  2803  000060  2A13               	incf	(??_keypad_Update+2)^0,f,c
  2804  000062  EF35  F000         	goto	i2u122_44
  2805  000066                     i2u122_45:
  2806  000066  90D8               	bcf	status,0,c
  2807  000068  3614               	rlcf	(??_keypad_Update+3)^0,f,c
  2808  00006A                     i2u122_44:
  2809  00006A  2E13               	decfsz	(??_keypad_Update+2)^0,f,c
  2810  00006C  EF33  F000         	goto	i2u122_45
  2811  000070  5038               	movf	_current_column^0,w,c
  2812  000072  0D05               	mullw	5
  2813  000074  0ED8               	movlw	low _keypad
  2814  000076  24F3               	addwf	243,w,c
  2815  000078  6EE1               	movwf	fsr1l,c
  2816  00007A  0E00               	movlw	high _keypad
  2817  00007C  20F4               	addwfc	prodh,w,c
  2818  00007E  6EE2               	movwf	fsr1h,c
  2819  000080  CFE6 F015          	movff	postinc1,??_keypad_Update+4
  2820  000084  CFE5 F016          	movff	postdec1,??_keypad_Update+5
  2821  000088  C015  FFE1         	movff	??_keypad_Update+4,fsr1l
  2822  00008C  C016  FFE2         	movff	??_keypad_Update+5,fsr1h
  2823  000090  50E7               	movf	indf1,w,c
  2824  000092  6E17               	movwf	(??_keypad_Update+6)^0,c
  2825  000094  5038               	movf	_current_column^0,w,c
  2826  000096  0D05               	mullw	5
  2827  000098  0EDC               	movlw	low (_keypad+4)
  2828  00009A  24F3               	addwf	243,w,c
  2829  00009C  6EE1               	movwf	fsr1l,c
  2830  00009E  0E00               	movlw	high (_keypad+4)
  2831  0000A0  20F4               	addwfc	prodh,w,c
  2832  0000A2  6EE2               	movwf	fsr1h,c
  2833  0000A4  50E7               	movf	indf1,w,c
  2834  0000A6  6E18               	movwf	(??_keypad_Update+7)^0,c
  2835  0000A8  0E01               	movlw	1
  2836  0000AA  6E19               	movwf	(??_keypad_Update+8)^0,c
  2837  0000AC  2A18               	incf	(??_keypad_Update+7)^0,f,c
  2838  0000AE  EF5B  F000         	goto	i2u123_44
  2839  0000B2                     i2u123_45:
  2840  0000B2  90D8               	bcf	status,0,c
  2841  0000B4  3619               	rlcf	(??_keypad_Update+8)^0,f,c
  2842  0000B6                     i2u123_44:
  2843  0000B6  2E18               	decfsz	(??_keypad_Update+7)^0,f,c
  2844  0000B8  EF59  F000         	goto	i2u123_45
  2845  0000BC  5019               	movf	(??_keypad_Update+8)^0,w,c
  2846  0000BE  0AFF               	xorlw	255
  2847  0000C0  1417               	andwf	(??_keypad_Update+6)^0,w,c
  2848  0000C2  1014               	iorwf	(??_keypad_Update+3)^0,w,c
  2849  0000C4  6EDF               	movwf	indf2,c
  2850  0000C6  EF92  F003         	goto	i2l259
  2851  0000CA                     i2l1788:
  2852                           
  2853                           ;Keypad.c: 147:     tick_counter = 0;
  2854  0000CA  0E00               	movlw	0
  2855  0000CC  6E37               	movwf	Keypad@tick_counter^0,c
  2856                           
  2857                           ;Keypad.c: 152:     for(i =0; i<(4);i++)
  2858  0000CE  0E00               	movlw	0
  2859  0000D0  6E1B               	movwf	(keypad_Update@i+1)^0,c
  2860  0000D2  0E00               	movlw	0
  2861  0000D4  6E1A               	movwf	keypad_Update@i^0,c
  2862  0000D6                     i2l1794:
  2863                           
  2864                           ;Keypad.c: 153:     {;Keypad.c: 156:         KP_Btn_Data[current_column + 3*i].samples[0
      +                          ] = KP_Btn_Data[current_column+ 3*i].samples[1];
  2865  0000D6  C01A  F001         	movff	keypad_Update@i,___wmul@multiplier
  2866  0000DA  C01B  F002         	movff	keypad_Update@i+1,___wmul@multiplier+1
  2867  0000DE  0E00               	movlw	0
  2868  0000E0  6E04               	movwf	(___wmul@multiplicand+1)^0,c
  2869  0000E2  0E09               	movlw	9
  2870  0000E4  6E03               	movwf	___wmul@multiplicand^0,c
  2871  0000E6  ECCB  F00A         	call	___wmul	;wreg free
  2872  0000EA  5038               	movf	_current_column^0,w,c
  2873  0000EC  0D03               	mullw	3
  2874  0000EE  0EB4               	movlw	low _KP_Btn_Data
  2875  0000F0  6E11               	movwf	??_keypad_Update^0,c
  2876  0000F2  0E00               	movlw	high _KP_Btn_Data
  2877  0000F4  6E12               	movwf	(??_keypad_Update+1)^0,c
  2878  0000F6  0E01               	movlw	1
  2879  0000F8  2611               	addwf	??_keypad_Update^0,f,c
  2880  0000FA  0E00               	movlw	0
  2881  0000FC  2212               	addwfc	(??_keypad_Update+1)^0,f,c
  2882  0000FE  50F3               	movf	243,w,c
  2883  000100  2611               	addwf	??_keypad_Update^0,f,c
  2884  000102  50F4               	movf	244,w,c
  2885  000104  2212               	addwfc	(??_keypad_Update+1)^0,f,c
  2886  000106  5001               	movf	?___wmul^0,w,c
  2887  000108  2411               	addwf	??_keypad_Update^0,w,c
  2888  00010A  6ED9               	movwf	fsr2l,c
  2889  00010C  5002               	movf	(?___wmul+1)^0,w,c
  2890  00010E  2012               	addwfc	(??_keypad_Update+1)^0,w,c
  2891  000110  6EDA               	movwf	fsr2h,c
  2892  000112  C01A  F001         	movff	keypad_Update@i,___wmul@multiplier
  2893  000116  C01B  F002         	movff	keypad_Update@i+1,___wmul@multiplier+1
  2894  00011A  0E00               	movlw	0
  2895  00011C  6E04               	movwf	(___wmul@multiplicand+1)^0,c
  2896  00011E  0E09               	movlw	9
  2897  000120  6E03               	movwf	___wmul@multiplicand^0,c
  2898  000122  ECCB  F00A         	call	___wmul	;wreg free
  2899  000126  5038               	movf	_current_column^0,w,c
  2900  000128  0D03               	mullw	3
  2901  00012A  0EB4               	movlw	low _KP_Btn_Data
  2902  00012C  6E13               	movwf	(??_keypad_Update+2)^0,c
  2903  00012E  0E00               	movlw	high _KP_Btn_Data
  2904  000130  6E14               	movwf	(??_keypad_Update+3)^0,c
  2905  000132  50F3               	movf	243,w,c
  2906  000134  2613               	addwf	(??_keypad_Update+2)^0,f,c
  2907  000136  50F4               	movf	244,w,c
  2908  000138  2214               	addwfc	(??_keypad_Update+3)^0,f,c
  2909  00013A  5001               	movf	?___wmul^0,w,c
  2910  00013C  2413               	addwf	(??_keypad_Update+2)^0,w,c
  2911  00013E  6EE1               	movwf	fsr1l,c
  2912  000140  5002               	movf	(?___wmul+1)^0,w,c
  2913  000142  2014               	addwfc	(??_keypad_Update+3)^0,w,c
  2914  000144  6EE2               	movwf	fsr1h,c
  2915  000146  CFDF FFE7          	movff	indf2,indf1
  2916                           
  2917                           ;Keypad.c: 158:         KP_Btn_Data[current_column+ 3*i].samples[1] = ((*keypad.KP_I_Pin
      +                          s[i].portRegPtr >> keypad.KP_I_Pins[i].pin)& 1);
  2918  00014A  C01A  F001         	movff	keypad_Update@i,___wmul@multiplier
  2919  00014E  C01B  F002         	movff	keypad_Update@i+1,___wmul@multiplier+1
  2920  000152  0E00               	movlw	0
  2921  000154  6E04               	movwf	(___wmul@multiplicand+1)^0,c
  2922  000156  0E09               	movlw	9
  2923  000158  6E03               	movwf	___wmul@multiplicand^0,c
  2924  00015A  ECCB  F00A         	call	___wmul	;wreg free
  2925  00015E  5038               	movf	_current_column^0,w,c
  2926  000160  0D03               	mullw	3
  2927  000162  0EB4               	movlw	low _KP_Btn_Data
  2928  000164  6E11               	movwf	??_keypad_Update^0,c
  2929  000166  0E00               	movlw	high _KP_Btn_Data
  2930  000168  6E12               	movwf	(??_keypad_Update+1)^0,c
  2931  00016A  0E01               	movlw	1
  2932  00016C  2611               	addwf	??_keypad_Update^0,f,c
  2933  00016E  0E00               	movlw	0
  2934  000170  2212               	addwfc	(??_keypad_Update+1)^0,f,c
  2935  000172  50F3               	movf	243,w,c
  2936  000174  2611               	addwf	??_keypad_Update^0,f,c
  2937  000176  50F4               	movf	244,w,c
  2938  000178  2212               	addwfc	(??_keypad_Update+1)^0,f,c
  2939  00017A  5001               	movf	?___wmul^0,w,c
  2940  00017C  2411               	addwf	??_keypad_Update^0,w,c
  2941  00017E  6ED9               	movwf	fsr2l,c
  2942  000180  5002               	movf	(?___wmul+1)^0,w,c
  2943  000182  2012               	addwfc	(??_keypad_Update+1)^0,w,c
  2944  000184  6EDA               	movwf	fsr2h,c
  2945  000186  C01A  F001         	movff	keypad_Update@i,___wmul@multiplier
  2946  00018A  C01B  F002         	movff	keypad_Update@i+1,___wmul@multiplier+1
  2947  00018E  0E00               	movlw	0
  2948  000190  6E04               	movwf	(___wmul@multiplicand+1)^0,c
  2949  000192  0E05               	movlw	5
  2950  000194  6E03               	movwf	___wmul@multiplicand^0,c
  2951  000196  ECCB  F00A         	call	___wmul	;wreg free
  2952  00019A  0EEB               	movlw	low (_keypad+19)
  2953  00019C  2401               	addwf	?___wmul^0,w,c
  2954  00019E  6EE1               	movwf	fsr1l,c
  2955  0001A0  0E00               	movlw	high (_keypad+19)
  2956  0001A2  2002               	addwfc	(?___wmul+1)^0,w,c
  2957  0001A4  6EE2               	movwf	fsr1h,c
  2958  0001A6  50E7               	movf	indf1,w,c
  2959  0001A8  6E13               	movwf	(??_keypad_Update+2)^0,c
  2960  0001AA  C01A  F001         	movff	keypad_Update@i,___wmul@multiplier
  2961  0001AE  C01B  F002         	movff	keypad_Update@i+1,___wmul@multiplier+1
  2962  0001B2  0E00               	movlw	0
  2963  0001B4  6E04               	movwf	(___wmul@multiplicand+1)^0,c
  2964  0001B6  0E05               	movlw	5
  2965  0001B8  6E03               	movwf	___wmul@multiplicand^0,c
  2966  0001BA  ECCB  F00A         	call	___wmul	;wreg free
  2967  0001BE  0EE7               	movlw	low (_keypad+15)
  2968  0001C0  2401               	addwf	?___wmul^0,w,c
  2969  0001C2  6EE1               	movwf	fsr1l,c
  2970  0001C4  0E00               	movlw	high (_keypad+15)
  2971  0001C6  2002               	addwfc	(?___wmul+1)^0,w,c
  2972  0001C8  6EE2               	movwf	fsr1h,c
  2973  0001CA  CFE6 F014          	movff	postinc1,??_keypad_Update+3
  2974  0001CE  CFE5 F015          	movff	postdec1,??_keypad_Update+4
  2975  0001D2  C014  FFE1         	movff	??_keypad_Update+3,fsr1l
  2976  0001D6  C015  FFE2         	movff	??_keypad_Update+4,fsr1h
  2977  0001DA  50E7               	movf	indf1,w,c
  2978  0001DC  6E16               	movwf	(??_keypad_Update+5)^0,c
  2979  0001DE  2A13               	incf	(??_keypad_Update+2)^0,f,c
  2980  0001E0  EFF4  F000         	goto	i2u124_44
  2981  0001E4                     i2u124_45:
  2982  0001E4  90D8               	bcf	status,0,c
  2983  0001E6  3216               	rrcf	(??_keypad_Update+5)^0,f,c
  2984  0001E8                     i2u124_44:
  2985  0001E8  2E13               	decfsz	(??_keypad_Update+2)^0,f,c
  2986  0001EA  EFF2  F000         	goto	i2u124_45
  2987  0001EE  5016               	movf	(??_keypad_Update+5)^0,w,c
  2988  0001F0  0B01               	andlw	1
  2989  0001F2  6EDF               	movwf	indf2,c
  2990  0001F4                     
  2991                           ;Keypad.c: 159:     }
  2992  0001F4  4A1A               	infsnz	keypad_Update@i^0,f,c
  2993  0001F6  2A1B               	incf	(keypad_Update@i+1)^0,f,c
  2994  0001F8  BE1B               	btfsc	(keypad_Update@i+1)^0,7,c
  2995  0001FA  EF08  F001         	goto	i2u125_41
  2996  0001FE  501B               	movf	(keypad_Update@i+1)^0,w,c
  2997  000200  E109               	bnz	i2u125_40
  2998  000202  0E04               	movlw	4
  2999  000204  5C1A               	subwf	keypad_Update@i^0,w,c
  3000  000206  A0D8               	btfss	status,0,c
  3001  000208  EF08  F001         	goto	i2u125_41
  3002  00020C  EF0A  F001         	goto	i2u125_40
  3003  000210                     i2u125_41:
  3004  000210  EF6B  F000         	goto	i2l1794
  3005  000214                     i2u125_40:
  3006  000214                     
  3007                           ;Keypad.c: 164:     for(i =0; i<(4);i++)
  3008  000214  0E00               	movlw	0
  3009  000216  6E1B               	movwf	(keypad_Update@i+1)^0,c
  3010  000218  0E00               	movlw	0
  3011  00021A  6E1A               	movwf	keypad_Update@i^0,c
  3012  00021C  EFB8  F002         	goto	i2l1832
  3013  000220                     i2l1806:
  3014                           
  3015                           ;Keypad.c: 170:                 if(KP_Btn_Data[current_column + 3*i].samples[0] == (1) &
      +                          & KP_Btn_Data[current_column + 3*i].samples[1] == (1))
  3016  000220  C01A  F001         	movff	keypad_Update@i,___wmul@multiplier
  3017  000224  C01B  F002         	movff	keypad_Update@i+1,___wmul@multiplier+1
  3018  000228  0E00               	movlw	0
  3019  00022A  6E04               	movwf	(___wmul@multiplicand+1)^0,c
  3020  00022C  0E09               	movlw	9
  3021  00022E  6E03               	movwf	___wmul@multiplicand^0,c
  3022  000230  ECCB  F00A         	call	___wmul	;wreg free
  3023  000234  5038               	movf	_current_column^0,w,c
  3024  000236  0D03               	mullw	3
  3025  000238  0EB4               	movlw	low _KP_Btn_Data
  3026  00023A  6E11               	movwf	??_keypad_Update^0,c
  3027  00023C  0E00               	movlw	high _KP_Btn_Data
  3028  00023E  6E12               	movwf	(??_keypad_Update+1)^0,c
  3029  000240  50F3               	movf	243,w,c
  3030  000242  2611               	addwf	??_keypad_Update^0,f,c
  3031  000244  50F4               	movf	244,w,c
  3032  000246  2212               	addwfc	(??_keypad_Update+1)^0,f,c
  3033  000248  5001               	movf	?___wmul^0,w,c
  3034  00024A  2411               	addwf	??_keypad_Update^0,w,c
  3035  00024C  6ED9               	movwf	fsr2l,c
  3036  00024E  5002               	movf	(?___wmul+1)^0,w,c
  3037  000250  2012               	addwfc	(??_keypad_Update+1)^0,w,c
  3038  000252  6EDA               	movwf	fsr2h,c
  3039  000254  04DE               	decf	postinc2,w,c
  3040  000256  A4D8               	btfss	status,2,c
  3041  000258  EF30  F001         	goto	i2u126_41
  3042  00025C  EF32  F001         	goto	i2u126_40
  3043  000260                     i2u126_41:
  3044  000260  EFF3  F002         	goto	i2l1834
  3045  000264                     i2u126_40:
  3046  000264  C01A  F001         	movff	keypad_Update@i,___wmul@multiplier
  3047  000268  C01B  F002         	movff	keypad_Update@i+1,___wmul@multiplier+1
  3048  00026C  0E00               	movlw	0
  3049  00026E  6E04               	movwf	(___wmul@multiplicand+1)^0,c
  3050  000270  0E09               	movlw	9
  3051  000272  6E03               	movwf	___wmul@multiplicand^0,c
  3052  000274  ECCB  F00A         	call	___wmul	;wreg free
  3053  000278  5038               	movf	_current_column^0,w,c
  3054  00027A  0D03               	mullw	3
  3055  00027C  0EB4               	movlw	low _KP_Btn_Data
  3056  00027E  6E11               	movwf	??_keypad_Update^0,c
  3057  000280  0E00               	movlw	high _KP_Btn_Data
  3058  000282  6E12               	movwf	(??_keypad_Update+1)^0,c
  3059  000284  0E01               	movlw	1
  3060  000286  2611               	addwf	??_keypad_Update^0,f,c
  3061  000288  0E00               	movlw	0
  3062  00028A  2212               	addwfc	(??_keypad_Update+1)^0,f,c
  3063  00028C  50F3               	movf	243,w,c
  3064  00028E  2611               	addwf	??_keypad_Update^0,f,c
  3065  000290  50F4               	movf	244,w,c
  3066  000292  2212               	addwfc	(??_keypad_Update+1)^0,f,c
  3067  000294  5001               	movf	?___wmul^0,w,c
  3068  000296  2411               	addwf	??_keypad_Update^0,w,c
  3069  000298  6ED9               	movwf	fsr2l,c
  3070  00029A  5002               	movf	(?___wmul+1)^0,w,c
  3071  00029C  2012               	addwfc	(??_keypad_Update+1)^0,w,c
  3072  00029E  6EDA               	movwf	fsr2h,c
  3073  0002A0  04DE               	decf	postinc2,w,c
  3074  0002A2  A4D8               	btfss	status,2,c
  3075  0002A4  EF56  F001         	goto	i2u127_41
  3076  0002A8  EF58  F001         	goto	i2u127_40
  3077  0002AC                     i2u127_41:
  3078  0002AC  EFF3  F002         	goto	i2l1834
  3079  0002B0                     i2u127_40:
  3080  0002B0                     
  3081                           ;Keypad.c: 171:                     KP_Btn_Data[current_column + 3*i].state = SW_RELEASE
      +                          D;
  3082  0002B0  C01A  F001         	movff	keypad_Update@i,___wmul@multiplier
  3083  0002B4  C01B  F002         	movff	keypad_Update@i+1,___wmul@multiplier+1
  3084  0002B8  0E00               	movlw	0
  3085  0002BA  6E04               	movwf	(___wmul@multiplicand+1)^0,c
  3086  0002BC  0E09               	movlw	9
  3087  0002BE  6E03               	movwf	___wmul@multiplicand^0,c
  3088  0002C0  ECCB  F00A         	call	___wmul	;wreg free
  3089  0002C4  5038               	movf	_current_column^0,w,c
  3090  0002C6  0D03               	mullw	3
  3091  0002C8  0EB4               	movlw	low _KP_Btn_Data
  3092  0002CA  6E11               	movwf	??_keypad_Update^0,c
  3093  0002CC  0E00               	movlw	high _KP_Btn_Data
  3094  0002CE  6E12               	movwf	(??_keypad_Update+1)^0,c
  3095  0002D0  0E02               	movlw	2
  3096  0002D2  2611               	addwf	??_keypad_Update^0,f,c
  3097  0002D4  0E00               	movlw	0
  3098  0002D6  2212               	addwfc	(??_keypad_Update+1)^0,f,c
  3099  0002D8  50F3               	movf	243,w,c
  3100  0002DA  2611               	addwf	??_keypad_Update^0,f,c
  3101  0002DC  50F4               	movf	244,w,c
  3102  0002DE  2212               	addwfc	(??_keypad_Update+1)^0,f,c
  3103  0002E0  5001               	movf	?___wmul^0,w,c
  3104  0002E2  2411               	addwf	??_keypad_Update^0,w,c
  3105  0002E4  6ED9               	movwf	fsr2l,c
  3106  0002E6  5002               	movf	(?___wmul+1)^0,w,c
  3107  0002E8  2012               	addwfc	(??_keypad_Update+1)^0,w,c
  3108  0002EA  6EDA               	movwf	fsr2h,c
  3109  0002EC  0E00               	movlw	0
  3110  0002EE  6EDF               	movwf	indf2,c
  3111  0002F0  EFF3  F002         	goto	i2l1834
  3112  0002F4                     i2l1812:
  3113                           
  3114                           ;Keypad.c: 174:                 if(KP_Btn_Data[current_column + 3*i].samples[0] == (0) &
      +                          & KP_Btn_Data[current_column + 3*i].samples[1] == (0))
  3115  0002F4  C01A  F001         	movff	keypad_Update@i,___wmul@multiplier
  3116  0002F8  C01B  F002         	movff	keypad_Update@i+1,___wmul@multiplier+1
  3117  0002FC  0E00               	movlw	0
  3118  0002FE  6E04               	movwf	(___wmul@multiplicand+1)^0,c
  3119  000300  0E09               	movlw	9
  3120  000302  6E03               	movwf	___wmul@multiplicand^0,c
  3121  000304  ECCB  F00A         	call	___wmul	;wreg free
  3122  000308  5038               	movf	_current_column^0,w,c
  3123  00030A  0D03               	mullw	3
  3124  00030C  0EB4               	movlw	low _KP_Btn_Data
  3125  00030E  6E11               	movwf	??_keypad_Update^0,c
  3126  000310  0E00               	movlw	high _KP_Btn_Data
  3127  000312  6E12               	movwf	(??_keypad_Update+1)^0,c
  3128  000314  50F3               	movf	243,w,c
  3129  000316  2611               	addwf	??_keypad_Update^0,f,c
  3130  000318  50F4               	movf	244,w,c
  3131  00031A  2212               	addwfc	(??_keypad_Update+1)^0,f,c
  3132  00031C  5001               	movf	?___wmul^0,w,c
  3133  00031E  2411               	addwf	??_keypad_Update^0,w,c
  3134  000320  6ED9               	movwf	fsr2l,c
  3135  000322  5002               	movf	(?___wmul+1)^0,w,c
  3136  000324  2012               	addwfc	(??_keypad_Update+1)^0,w,c
  3137  000326  6EDA               	movwf	fsr2h,c
  3138  000328  50DF               	movf	indf2,w,c
  3139  00032A  A4D8               	btfss	status,2,c
  3140  00032C  EF9A  F001         	goto	i2u128_41
  3141  000330  EF9C  F001         	goto	i2u128_40
  3142  000334                     i2u128_41:
  3143  000334  EFF3  F002         	goto	i2l1834
  3144  000338                     i2u128_40:
  3145  000338  C01A  F001         	movff	keypad_Update@i,___wmul@multiplier
  3146  00033C  C01B  F002         	movff	keypad_Update@i+1,___wmul@multiplier+1
  3147  000340  0E00               	movlw	0
  3148  000342  6E04               	movwf	(___wmul@multiplicand+1)^0,c
  3149  000344  0E09               	movlw	9
  3150  000346  6E03               	movwf	___wmul@multiplicand^0,c
  3151  000348  ECCB  F00A         	call	___wmul	;wreg free
  3152  00034C  5038               	movf	_current_column^0,w,c
  3153  00034E  0D03               	mullw	3
  3154  000350  0EB4               	movlw	low _KP_Btn_Data
  3155  000352  6E11               	movwf	??_keypad_Update^0,c
  3156  000354  0E00               	movlw	high _KP_Btn_Data
  3157  000356  6E12               	movwf	(??_keypad_Update+1)^0,c
  3158  000358  0E01               	movlw	1
  3159  00035A  2611               	addwf	??_keypad_Update^0,f,c
  3160  00035C  0E00               	movlw	0
  3161  00035E  2212               	addwfc	(??_keypad_Update+1)^0,f,c
  3162  000360  50F3               	movf	243,w,c
  3163  000362  2611               	addwf	??_keypad_Update^0,f,c
  3164  000364  50F4               	movf	244,w,c
  3165  000366  2212               	addwfc	(??_keypad_Update+1)^0,f,c
  3166  000368  5001               	movf	?___wmul^0,w,c
  3167  00036A  2411               	addwf	??_keypad_Update^0,w,c
  3168  00036C  6ED9               	movwf	fsr2l,c
  3169  00036E  5002               	movf	(?___wmul+1)^0,w,c
  3170  000370  2012               	addwfc	(??_keypad_Update+1)^0,w,c
  3171  000372  6EDA               	movwf	fsr2h,c
  3172  000374  50DF               	movf	indf2,w,c
  3173  000376  A4D8               	btfss	status,2,c
  3174  000378  EFC0  F001         	goto	i2u129_41
  3175  00037C  EFC2  F001         	goto	i2u129_40
  3176  000380                     i2u129_41:
  3177  000380  EFF3  F002         	goto	i2l1834
  3178  000384                     i2u129_40:
  3179  000384                     
  3180                           ;Keypad.c: 175:                     KP_Btn_Data[current_column + 3*i].state = SW_PRE_PRE
      +                          SSED;
  3181  000384  C01A  F001         	movff	keypad_Update@i,___wmul@multiplier
  3182  000388  C01B  F002         	movff	keypad_Update@i+1,___wmul@multiplier+1
  3183  00038C  0E00               	movlw	0
  3184  00038E  6E04               	movwf	(___wmul@multiplicand+1)^0,c
  3185  000390  0E09               	movlw	9
  3186  000392  6E03               	movwf	___wmul@multiplicand^0,c
  3187  000394  ECCB  F00A         	call	___wmul	;wreg free
  3188  000398  5038               	movf	_current_column^0,w,c
  3189  00039A  0D03               	mullw	3
  3190  00039C  0EB4               	movlw	low _KP_Btn_Data
  3191  00039E  6E11               	movwf	??_keypad_Update^0,c
  3192  0003A0  0E00               	movlw	high _KP_Btn_Data
  3193  0003A2  6E12               	movwf	(??_keypad_Update+1)^0,c
  3194  0003A4  0E02               	movlw	2
  3195  0003A6  2611               	addwf	??_keypad_Update^0,f,c
  3196  0003A8  0E00               	movlw	0
  3197  0003AA  2212               	addwfc	(??_keypad_Update+1)^0,f,c
  3198  0003AC  50F3               	movf	243,w,c
  3199  0003AE  2611               	addwf	??_keypad_Update^0,f,c
  3200  0003B0  50F4               	movf	244,w,c
  3201  0003B2  2212               	addwfc	(??_keypad_Update+1)^0,f,c
  3202  0003B4  5001               	movf	?___wmul^0,w,c
  3203  0003B6  2411               	addwf	??_keypad_Update^0,w,c
  3204  0003B8  6ED9               	movwf	fsr2l,c
  3205  0003BA  5002               	movf	(?___wmul+1)^0,w,c
  3206  0003BC  2012               	addwfc	(??_keypad_Update+1)^0,w,c
  3207  0003BE  6EDA               	movwf	fsr2h,c
  3208  0003C0  0E01               	movlw	1
  3209  0003C2  6EDF               	movwf	indf2,c
  3210  0003C4  EFF3  F002         	goto	i2l1834
  3211  0003C8                     i2l1818:
  3212                           
  3213                           ;Keypad.c: 178:                 if(KP_Btn_Data[current_column + 3*i].samples[0] == (0) &
      +                          & KP_Btn_Data[current_column + 3*i].samples[1] == (0))
  3214  0003C8  C01A  F001         	movff	keypad_Update@i,___wmul@multiplier
  3215  0003CC  C01B  F002         	movff	keypad_Update@i+1,___wmul@multiplier+1
  3216  0003D0  0E00               	movlw	0
  3217  0003D2  6E04               	movwf	(___wmul@multiplicand+1)^0,c
  3218  0003D4  0E09               	movlw	9
  3219  0003D6  6E03               	movwf	___wmul@multiplicand^0,c
  3220  0003D8  ECCB  F00A         	call	___wmul	;wreg free
  3221  0003DC  5038               	movf	_current_column^0,w,c
  3222  0003DE  0D03               	mullw	3
  3223  0003E0  0EB4               	movlw	low _KP_Btn_Data
  3224  0003E2  6E11               	movwf	??_keypad_Update^0,c
  3225  0003E4  0E00               	movlw	high _KP_Btn_Data
  3226  0003E6  6E12               	movwf	(??_keypad_Update+1)^0,c
  3227  0003E8  50F3               	movf	243,w,c
  3228  0003EA  2611               	addwf	??_keypad_Update^0,f,c
  3229  0003EC  50F4               	movf	244,w,c
  3230  0003EE  2212               	addwfc	(??_keypad_Update+1)^0,f,c
  3231  0003F0  5001               	movf	?___wmul^0,w,c
  3232  0003F2  2411               	addwf	??_keypad_Update^0,w,c
  3233  0003F4  6ED9               	movwf	fsr2l,c
  3234  0003F6  5002               	movf	(?___wmul+1)^0,w,c
  3235  0003F8  2012               	addwfc	(??_keypad_Update+1)^0,w,c
  3236  0003FA  6EDA               	movwf	fsr2h,c
  3237  0003FC  50DF               	movf	indf2,w,c
  3238  0003FE  A4D8               	btfss	status,2,c
  3239  000400  EF04  F002         	goto	i2u130_41
  3240  000404  EF06  F002         	goto	i2u130_40
  3241  000408                     i2u130_41:
  3242  000408  EFF3  F002         	goto	i2l1834
  3243  00040C                     i2u130_40:
  3244  00040C  C01A  F001         	movff	keypad_Update@i,___wmul@multiplier
  3245  000410  C01B  F002         	movff	keypad_Update@i+1,___wmul@multiplier+1
  3246  000414  0E00               	movlw	0
  3247  000416  6E04               	movwf	(___wmul@multiplicand+1)^0,c
  3248  000418  0E09               	movlw	9
  3249  00041A  6E03               	movwf	___wmul@multiplicand^0,c
  3250  00041C  ECCB  F00A         	call	___wmul	;wreg free
  3251  000420  5038               	movf	_current_column^0,w,c
  3252  000422  0D03               	mullw	3
  3253  000424  0EB4               	movlw	low _KP_Btn_Data
  3254  000426  6E11               	movwf	??_keypad_Update^0,c
  3255  000428  0E00               	movlw	high _KP_Btn_Data
  3256  00042A  6E12               	movwf	(??_keypad_Update+1)^0,c
  3257  00042C  0E01               	movlw	1
  3258  00042E  2611               	addwf	??_keypad_Update^0,f,c
  3259  000430  0E00               	movlw	0
  3260  000432  2212               	addwfc	(??_keypad_Update+1)^0,f,c
  3261  000434  50F3               	movf	243,w,c
  3262  000436  2611               	addwf	??_keypad_Update^0,f,c
  3263  000438  50F4               	movf	244,w,c
  3264  00043A  2212               	addwfc	(??_keypad_Update+1)^0,f,c
  3265  00043C  5001               	movf	?___wmul^0,w,c
  3266  00043E  2411               	addwf	??_keypad_Update^0,w,c
  3267  000440  6ED9               	movwf	fsr2l,c
  3268  000442  5002               	movf	(?___wmul+1)^0,w,c
  3269  000444  2012               	addwfc	(??_keypad_Update+1)^0,w,c
  3270  000446  6EDA               	movwf	fsr2h,c
  3271  000448  50DF               	movf	indf2,w,c
  3272  00044A  A4D8               	btfss	status,2,c
  3273  00044C  EF2A  F002         	goto	i2u131_41
  3274  000450  EF2C  F002         	goto	i2u131_40
  3275  000454                     i2u131_41:
  3276  000454  EFF3  F002         	goto	i2l1834
  3277  000458                     i2u131_40:
  3278  000458                     
  3279                           ;Keypad.c: 179:                     KP_Btn_Data[current_column + 3*i].state = SW_PRESSED
      +                          ;
  3280  000458  C01A  F001         	movff	keypad_Update@i,___wmul@multiplier
  3281  00045C  C01B  F002         	movff	keypad_Update@i+1,___wmul@multiplier+1
  3282  000460  0E00               	movlw	0
  3283  000462  6E04               	movwf	(___wmul@multiplicand+1)^0,c
  3284  000464  0E09               	movlw	9
  3285  000466  6E03               	movwf	___wmul@multiplicand^0,c
  3286  000468  ECCB  F00A         	call	___wmul	;wreg free
  3287  00046C  5038               	movf	_current_column^0,w,c
  3288  00046E  0D03               	mullw	3
  3289  000470  0EB4               	movlw	low _KP_Btn_Data
  3290  000472  6E11               	movwf	??_keypad_Update^0,c
  3291  000474  0E00               	movlw	high _KP_Btn_Data
  3292  000476  6E12               	movwf	(??_keypad_Update+1)^0,c
  3293  000478  0E02               	movlw	2
  3294  00047A  2611               	addwf	??_keypad_Update^0,f,c
  3295  00047C  0E00               	movlw	0
  3296  00047E  2212               	addwfc	(??_keypad_Update+1)^0,f,c
  3297  000480  50F3               	movf	243,w,c
  3298  000482  2611               	addwf	??_keypad_Update^0,f,c
  3299  000484  50F4               	movf	244,w,c
  3300  000486  2212               	addwfc	(??_keypad_Update+1)^0,f,c
  3301  000488  5001               	movf	?___wmul^0,w,c
  3302  00048A  2411               	addwf	??_keypad_Update^0,w,c
  3303  00048C  6ED9               	movwf	fsr2l,c
  3304  00048E  5002               	movf	(?___wmul+1)^0,w,c
  3305  000490  2012               	addwfc	(??_keypad_Update+1)^0,w,c
  3306  000492  6EDA               	movwf	fsr2h,c
  3307  000494  0E02               	movlw	2
  3308  000496  6EDF               	movwf	indf2,c
  3309  000498  EFF3  F002         	goto	i2l1834
  3310  00049C                     i2l1824:
  3311                           
  3312                           ;Keypad.c: 182:                 if(KP_Btn_Data[current_column + 3*i].samples[0] == (1) &
      +                          & KP_Btn_Data[current_column + 3*i].samples[1] == (1))
  3313  00049C  C01A  F001         	movff	keypad_Update@i,___wmul@multiplier
  3314  0004A0  C01B  F002         	movff	keypad_Update@i+1,___wmul@multiplier+1
  3315  0004A4  0E00               	movlw	0
  3316  0004A6  6E04               	movwf	(___wmul@multiplicand+1)^0,c
  3317  0004A8  0E09               	movlw	9
  3318  0004AA  6E03               	movwf	___wmul@multiplicand^0,c
  3319  0004AC  ECCB  F00A         	call	___wmul	;wreg free
  3320  0004B0  5038               	movf	_current_column^0,w,c
  3321  0004B2  0D03               	mullw	3
  3322  0004B4  0EB4               	movlw	low _KP_Btn_Data
  3323  0004B6  6E11               	movwf	??_keypad_Update^0,c
  3324  0004B8  0E00               	movlw	high _KP_Btn_Data
  3325  0004BA  6E12               	movwf	(??_keypad_Update+1)^0,c
  3326  0004BC  50F3               	movf	243,w,c
  3327  0004BE  2611               	addwf	??_keypad_Update^0,f,c
  3328  0004C0  50F4               	movf	244,w,c
  3329  0004C2  2212               	addwfc	(??_keypad_Update+1)^0,f,c
  3330  0004C4  5001               	movf	?___wmul^0,w,c
  3331  0004C6  2411               	addwf	??_keypad_Update^0,w,c
  3332  0004C8  6ED9               	movwf	fsr2l,c
  3333  0004CA  5002               	movf	(?___wmul+1)^0,w,c
  3334  0004CC  2012               	addwfc	(??_keypad_Update+1)^0,w,c
  3335  0004CE  6EDA               	movwf	fsr2h,c
  3336  0004D0  04DE               	decf	postinc2,w,c
  3337  0004D2  A4D8               	btfss	status,2,c
  3338  0004D4  EF6E  F002         	goto	i2u132_41
  3339  0004D8  EF70  F002         	goto	i2u132_40
  3340  0004DC                     i2u132_41:
  3341  0004DC  EFF3  F002         	goto	i2l1834
  3342  0004E0                     i2u132_40:
  3343  0004E0  C01A  F001         	movff	keypad_Update@i,___wmul@multiplier
  3344  0004E4  C01B  F002         	movff	keypad_Update@i+1,___wmul@multiplier+1
  3345  0004E8  0E00               	movlw	0
  3346  0004EA  6E04               	movwf	(___wmul@multiplicand+1)^0,c
  3347  0004EC  0E09               	movlw	9
  3348  0004EE  6E03               	movwf	___wmul@multiplicand^0,c
  3349  0004F0  ECCB  F00A         	call	___wmul	;wreg free
  3350  0004F4  5038               	movf	_current_column^0,w,c
  3351  0004F6  0D03               	mullw	3
  3352  0004F8  0EB4               	movlw	low _KP_Btn_Data
  3353  0004FA  6E11               	movwf	??_keypad_Update^0,c
  3354  0004FC  0E00               	movlw	high _KP_Btn_Data
  3355  0004FE  6E12               	movwf	(??_keypad_Update+1)^0,c
  3356  000500  0E01               	movlw	1
  3357  000502  2611               	addwf	??_keypad_Update^0,f,c
  3358  000504  0E00               	movlw	0
  3359  000506  2212               	addwfc	(??_keypad_Update+1)^0,f,c
  3360  000508  50F3               	movf	243,w,c
  3361  00050A  2611               	addwf	??_keypad_Update^0,f,c
  3362  00050C  50F4               	movf	244,w,c
  3363  00050E  2212               	addwfc	(??_keypad_Update+1)^0,f,c
  3364  000510  5001               	movf	?___wmul^0,w,c
  3365  000512  2411               	addwf	??_keypad_Update^0,w,c
  3366  000514  6ED9               	movwf	fsr2l,c
  3367  000516  5002               	movf	(?___wmul+1)^0,w,c
  3368  000518  2012               	addwfc	(??_keypad_Update+1)^0,w,c
  3369  00051A  6EDA               	movwf	fsr2h,c
  3370  00051C  04DE               	decf	postinc2,w,c
  3371  00051E  A4D8               	btfss	status,2,c
  3372  000520  EF94  F002         	goto	i2u133_41
  3373  000524  EF96  F002         	goto	i2u133_40
  3374  000528                     i2u133_41:
  3375  000528  EFF3  F002         	goto	i2l1834
  3376  00052C                     i2u133_40:
  3377  00052C                     
  3378                           ;Keypad.c: 183:                     KP_Btn_Data[current_column + 3*i].state = SW_PRE_REL
      +                          EASED;
  3379  00052C  C01A  F001         	movff	keypad_Update@i,___wmul@multiplier
  3380  000530  C01B  F002         	movff	keypad_Update@i+1,___wmul@multiplier+1
  3381  000534  0E00               	movlw	0
  3382  000536  6E04               	movwf	(___wmul@multiplicand+1)^0,c
  3383  000538  0E09               	movlw	9
  3384  00053A  6E03               	movwf	___wmul@multiplicand^0,c
  3385  00053C  ECCB  F00A         	call	___wmul	;wreg free
  3386  000540  5038               	movf	_current_column^0,w,c
  3387  000542  0D03               	mullw	3
  3388  000544  0EB4               	movlw	low _KP_Btn_Data
  3389  000546  6E11               	movwf	??_keypad_Update^0,c
  3390  000548  0E00               	movlw	high _KP_Btn_Data
  3391  00054A  6E12               	movwf	(??_keypad_Update+1)^0,c
  3392  00054C  0E02               	movlw	2
  3393  00054E  2611               	addwf	??_keypad_Update^0,f,c
  3394  000550  0E00               	movlw	0
  3395  000552  2212               	addwfc	(??_keypad_Update+1)^0,f,c
  3396  000554  50F3               	movf	243,w,c
  3397  000556  2611               	addwf	??_keypad_Update^0,f,c
  3398  000558  50F4               	movf	244,w,c
  3399  00055A  2212               	addwfc	(??_keypad_Update+1)^0,f,c
  3400  00055C  5001               	movf	?___wmul^0,w,c
  3401  00055E  2411               	addwf	??_keypad_Update^0,w,c
  3402  000560  6ED9               	movwf	fsr2l,c
  3403  000562  5002               	movf	(?___wmul+1)^0,w,c
  3404  000564  2012               	addwfc	(??_keypad_Update+1)^0,w,c
  3405  000566  6EDA               	movwf	fsr2h,c
  3406  000568  0E03               	movlw	3
  3407  00056A  6EDF               	movwf	indf2,c
  3408  00056C  EFF3  F002         	goto	i2l1834
  3409  000570                     i2l1832:
  3410  000570  C01A  F001         	movff	keypad_Update@i,___wmul@multiplier
  3411  000574  C01B  F002         	movff	keypad_Update@i+1,___wmul@multiplier+1
  3412  000578  0E00               	movlw	0
  3413  00057A  6E04               	movwf	(___wmul@multiplicand+1)^0,c
  3414  00057C  0E09               	movlw	9
  3415  00057E  6E03               	movwf	___wmul@multiplicand^0,c
  3416  000580  ECCB  F00A         	call	___wmul	;wreg free
  3417  000584  5038               	movf	_current_column^0,w,c
  3418  000586  0D03               	mullw	3
  3419  000588  0EB4               	movlw	low _KP_Btn_Data
  3420  00058A  6E11               	movwf	??_keypad_Update^0,c
  3421  00058C  0E00               	movlw	high _KP_Btn_Data
  3422  00058E  6E12               	movwf	(??_keypad_Update+1)^0,c
  3423  000590  0E02               	movlw	2
  3424  000592  2611               	addwf	??_keypad_Update^0,f,c
  3425  000594  0E00               	movlw	0
  3426  000596  2212               	addwfc	(??_keypad_Update+1)^0,f,c
  3427  000598  50F3               	movf	243,w,c
  3428  00059A  2611               	addwf	??_keypad_Update^0,f,c
  3429  00059C  50F4               	movf	244,w,c
  3430  00059E  2212               	addwfc	(??_keypad_Update+1)^0,f,c
  3431  0005A0  5001               	movf	?___wmul^0,w,c
  3432  0005A2  2411               	addwf	??_keypad_Update^0,w,c
  3433  0005A4  6ED9               	movwf	fsr2l,c
  3434  0005A6  5002               	movf	(?___wmul+1)^0,w,c
  3435  0005A8  2012               	addwfc	(??_keypad_Update+1)^0,w,c
  3436  0005AA  6EDA               	movwf	fsr2h,c
  3437  0005AC  50DF               	movf	indf2,w,c
  3438  0005AE  6E13               	movwf	(??_keypad_Update+2)^0,c
  3439  0005B0  6A14               	clrf	(??_keypad_Update+3)^0,c
  3440                           
  3441                           ; Switch on 2 bytes has been partitioned into a top level switch of size 1, and 1 sub-sw
      +                          itches
  3442                           ; Switch size 1, requested type "simple"
  3443                           ; Number of cases is 1, Range of values is 0 to 0
  3444                           ; switch strategies available:
  3445                           ; Name         Instructions Cycles
  3446                           ; simple_byte            4     3 (average)
  3447                           ;	Chosen strategy is simple_byte
  3448  0005B2  5014               	movf	(??_keypad_Update+3)^0,w,c
  3449  0005B4  0A00               	xorlw	0	; case 0
  3450  0005B6  B4D8               	btfsc	status,2,c
  3451  0005B8  EFE0  F002         	goto	i2l2312
  3452  0005BC  EFF3  F002         	goto	i2l1834
  3453  0005C0                     i2l2312:
  3454                           
  3455                           ; Switch size 1, requested type "simple"
  3456                           ; Number of cases is 4, Range of values is 0 to 3
  3457                           ; switch strategies available:
  3458                           ; Name         Instructions Cycles
  3459                           ; simple_byte           13     7 (average)
  3460                           ;	Chosen strategy is simple_byte
  3461  0005C0  5013               	movf	(??_keypad_Update+2)^0,w,c
  3462  0005C2  0A00               	xorlw	0	; case 0
  3463  0005C4  B4D8               	btfsc	status,2,c
  3464  0005C6  EF7A  F001         	goto	i2l1812
  3465  0005CA  0A01               	xorlw	1	; case 1
  3466  0005CC  B4D8               	btfsc	status,2,c
  3467  0005CE  EFE4  F001         	goto	i2l1818
  3468  0005D2  0A03               	xorlw	3	; case 2
  3469  0005D4  B4D8               	btfsc	status,2,c
  3470  0005D6  EF4E  F002         	goto	i2l1824
  3471  0005DA  0A01               	xorlw	1	; case 3
  3472  0005DC  B4D8               	btfsc	status,2,c
  3473  0005DE  EF10  F001         	goto	i2l1806
  3474  0005E2  EFF3  F002         	goto	i2l1834
  3475  0005E6                     i2l1834:
  3476                           
  3477                           ;Keypad.c: 188:         if(KP_Btn_Data[current_column + 3*i].state == SW_PRE_PRESSED)LCD
      +                          _SetSymbol('0'+current_column + 3*i+1 , 0 , current_column + 3*i);
  3478  0005E6  C01A  F001         	movff	keypad_Update@i,___wmul@multiplier
  3479  0005EA  C01B  F002         	movff	keypad_Update@i+1,___wmul@multiplier+1
  3480  0005EE  0E00               	movlw	0
  3481  0005F0  6E04               	movwf	(___wmul@multiplicand+1)^0,c
  3482  0005F2  0E09               	movlw	9
  3483  0005F4  6E03               	movwf	___wmul@multiplicand^0,c
  3484  0005F6  ECCB  F00A         	call	___wmul	;wreg free
  3485  0005FA  5038               	movf	_current_column^0,w,c
  3486  0005FC  0D03               	mullw	3
  3487  0005FE  0EB4               	movlw	low _KP_Btn_Data
  3488  000600  6E11               	movwf	??_keypad_Update^0,c
  3489  000602  0E00               	movlw	high _KP_Btn_Data
  3490  000604  6E12               	movwf	(??_keypad_Update+1)^0,c
  3491  000606  0E02               	movlw	2
  3492  000608  2611               	addwf	??_keypad_Update^0,f,c
  3493  00060A  0E00               	movlw	0
  3494  00060C  2212               	addwfc	(??_keypad_Update+1)^0,f,c
  3495  00060E  50F3               	movf	243,w,c
  3496  000610  2611               	addwf	??_keypad_Update^0,f,c
  3497  000612  50F4               	movf	244,w,c
  3498  000614  2212               	addwfc	(??_keypad_Update+1)^0,f,c
  3499  000616  5001               	movf	?___wmul^0,w,c
  3500  000618  2411               	addwf	??_keypad_Update^0,w,c
  3501  00061A  6ED9               	movwf	fsr2l,c
  3502  00061C  5002               	movf	(?___wmul+1)^0,w,c
  3503  00061E  2012               	addwfc	(??_keypad_Update+1)^0,w,c
  3504  000620  6EDA               	movwf	fsr2h,c
  3505  000622  04DE               	decf	postinc2,w,c
  3506  000624  A4D8               	btfss	status,2,c
  3507  000626  EF17  F003         	goto	i2u134_41
  3508  00062A  EF19  F003         	goto	i2u134_40
  3509  00062E                     i2u134_41:
  3510  00062E  EF27  F003         	goto	i2l1838
  3511  000632                     i2u134_40:
  3512  000632  0E00               	movlw	0
  3513  000634  6E09               	movwf	LCD_SetSymbol@row^0,c
  3514  000636  501A               	movf	keypad_Update@i^0,w,c
  3515  000638  0D03               	mullw	3
  3516  00063A  50F3               	movf	243,w,c
  3517  00063C  2438               	addwf	_current_column^0,w,c
  3518  00063E  6E0A               	movwf	LCD_SetSymbol@column^0,c
  3519  000640  501A               	movf	keypad_Update@i^0,w,c
  3520  000642  0D03               	mullw	3
  3521  000644  50F3               	movf	243,w,c
  3522  000646  2438               	addwf	_current_column^0,w,c
  3523  000648  0F31               	addlw	49
  3524  00064A  EC8D  F009         	call	_LCD_SetSymbol
  3525  00064E                     i2l1838:
  3526                           
  3527                           ;Keypad.c: 189:     }
  3528  00064E  4A1A               	infsnz	keypad_Update@i^0,f,c
  3529  000650  2A1B               	incf	(keypad_Update@i+1)^0,f,c
  3530  000652  BE1B               	btfsc	(keypad_Update@i+1)^0,7,c
  3531  000654  EF35  F003         	goto	i2u135_41
  3532  000658  501B               	movf	(keypad_Update@i+1)^0,w,c
  3533  00065A  E109               	bnz	i2u135_40
  3534  00065C  0E04               	movlw	4
  3535  00065E  5C1A               	subwf	keypad_Update@i^0,w,c
  3536  000660  A0D8               	btfss	status,0,c
  3537  000662  EF35  F003         	goto	i2u135_41
  3538  000666  EF37  F003         	goto	i2u135_40
  3539  00066A                     i2u135_41:
  3540  00066A  EFB8  F002         	goto	i2l1832
  3541  00066E                     i2u135_40:
  3542  00066E                     
  3543                           ;Keypad.c: 193:     ((*keypad.KP_O_Pins[current_column].portRegPtr)=(*keypad.KP_O_Pins[c
      +                          urrent_column].portRegPtr & ~(1<<keypad.KP_O_Pins[current_column].pin))|((1)<<keypad.KP_
      +                          O_Pins[current_column].pin));
  3544  00066E  5038               	movf	_current_column^0,w,c
  3545  000670  0D05               	mullw	5
  3546  000672  0ED8               	movlw	low _keypad
  3547  000674  24F3               	addwf	243,w,c
  3548  000676  6ED9               	movwf	fsr2l,c
  3549  000678  0E00               	movlw	high _keypad
  3550  00067A  20F4               	addwfc	prodh,w,c
  3551  00067C  6EDA               	movwf	fsr2h,c
  3552  00067E  CFDE F011          	movff	postinc2,??_keypad_Update
  3553  000682  CFDD F012          	movff	postdec2,??_keypad_Update+1
  3554  000686  C011  FFD9         	movff	??_keypad_Update,fsr2l
  3555  00068A  C012  FFDA         	movff	??_keypad_Update+1,fsr2h
  3556  00068E  5038               	movf	_current_column^0,w,c
  3557  000690  0D05               	mullw	5
  3558  000692  0EDC               	movlw	low (_keypad+4)
  3559  000694  24F3               	addwf	243,w,c
  3560  000696  6EE1               	movwf	fsr1l,c
  3561  000698  0E00               	movlw	high (_keypad+4)
  3562  00069A  20F4               	addwfc	prodh,w,c
  3563  00069C  6EE2               	movwf	fsr1h,c
  3564  00069E  50E7               	movf	indf1,w,c
  3565  0006A0  6E13               	movwf	(??_keypad_Update+2)^0,c
  3566  0006A2  0E01               	movlw	1
  3567  0006A4  6E14               	movwf	(??_keypad_Update+3)^0,c
  3568  0006A6  2A13               	incf	(??_keypad_Update+2)^0,f,c
  3569  0006A8  EF58  F003         	goto	i2u136_44
  3570  0006AC                     i2u136_45:
  3571  0006AC  90D8               	bcf	status,0,c
  3572  0006AE  3614               	rlcf	(??_keypad_Update+3)^0,f,c
  3573  0006B0                     i2u136_44:
  3574  0006B0  2E13               	decfsz	(??_keypad_Update+2)^0,f,c
  3575  0006B2  EF56  F003         	goto	i2u136_45
  3576  0006B6  5038               	movf	_current_column^0,w,c
  3577  0006B8  0D05               	mullw	5
  3578  0006BA  0ED8               	movlw	low _keypad
  3579  0006BC  24F3               	addwf	243,w,c
  3580  0006BE  6EE1               	movwf	fsr1l,c
  3581  0006C0  0E00               	movlw	high _keypad
  3582  0006C2  20F4               	addwfc	prodh,w,c
  3583  0006C4  6EE2               	movwf	fsr1h,c
  3584  0006C6  CFE6 F015          	movff	postinc1,??_keypad_Update+4
  3585  0006CA  CFE5 F016          	movff	postdec1,??_keypad_Update+5
  3586  0006CE  C015  FFE1         	movff	??_keypad_Update+4,fsr1l
  3587  0006D2  C016  FFE2         	movff	??_keypad_Update+5,fsr1h
  3588  0006D6  50E7               	movf	indf1,w,c
  3589  0006D8  6E17               	movwf	(??_keypad_Update+6)^0,c
  3590  0006DA  5038               	movf	_current_column^0,w,c
  3591  0006DC  0D05               	mullw	5
  3592  0006DE  0EDC               	movlw	low (_keypad+4)
  3593  0006E0  24F3               	addwf	243,w,c
  3594  0006E2  6EE1               	movwf	fsr1l,c
  3595  0006E4  0E00               	movlw	high (_keypad+4)
  3596  0006E6  20F4               	addwfc	prodh,w,c
  3597  0006E8  6EE2               	movwf	fsr1h,c
  3598  0006EA  50E7               	movf	indf1,w,c
  3599  0006EC  6E18               	movwf	(??_keypad_Update+7)^0,c
  3600  0006EE  0E01               	movlw	1
  3601  0006F0  6E19               	movwf	(??_keypad_Update+8)^0,c
  3602  0006F2  2A18               	incf	(??_keypad_Update+7)^0,f,c
  3603  0006F4  EF7E  F003         	goto	i2u137_44
  3604  0006F8                     i2u137_45:
  3605  0006F8  90D8               	bcf	status,0,c
  3606  0006FA  3619               	rlcf	(??_keypad_Update+8)^0,f,c
  3607  0006FC                     i2u137_44:
  3608  0006FC  2E18               	decfsz	(??_keypad_Update+7)^0,f,c
  3609  0006FE  EF7C  F003         	goto	i2u137_45
  3610  000702  5019               	movf	(??_keypad_Update+8)^0,w,c
  3611  000704  0AFF               	xorlw	255
  3612  000706  1417               	andwf	(??_keypad_Update+6)^0,w,c
  3613  000708  1014               	iorwf	(??_keypad_Update+3)^0,w,c
  3614  00070A  6EDF               	movwf	indf2,c
  3615  00070C                     
  3616                           ;Keypad.c: 196:     current_column++;
  3617  00070C  2A38               	incf	_current_column^0,f,c
  3618  00070E                     
  3619                           ;Keypad.c: 197:     if(current_column == (3))current_column = 0;
  3620  00070E  0E03               	movlw	3
  3621  000710  1838               	xorwf	_current_column^0,w,c
  3622  000712  A4D8               	btfss	status,2,c
  3623  000714  EF8E  F003         	goto	i2u138_41
  3624  000718  EF90  F003         	goto	i2u138_40
  3625  00071C                     i2u138_41:
  3626  00071C  EF92  F003         	goto	i2l259
  3627  000720                     i2u138_40:
  3628  000720  0E00               	movlw	0
  3629  000722  6E38               	movwf	_current_column^0,c
  3630  000724                     i2l259:
  3631  000724  0012               	return		;funcret
  3632  000726                     __end_of_keypad_Update:
  3633                           	opt callstack 0
  3634                           
  3635 ;; *************** function ___wmul *****************
  3636 ;; Defined at:
  3637 ;;		line 15 in file "C:\Program Files (x86)\Microchip\xc8\v2.10\pic\sources\c99\common\Umul16.c"
  3638 ;; Parameters:    Size  Location     Type
  3639 ;;  multiplier      2    0[COMRAM] unsigned int 
  3640 ;;  multiplicand    2    2[COMRAM] unsigned int 
  3641 ;; Auto vars:     Size  Location     Type
  3642 ;;  product         2    4[COMRAM] unsigned int 
  3643 ;; Return value:  Size  Location     Type
  3644 ;;                  2    0[COMRAM] unsigned int 
  3645 ;; Registers used:
  3646 ;;		wreg, status,2, status,0, prodl, prodh
  3647 ;; Tracked objects:
  3648 ;;		On entry : 0/0
  3649 ;;		On exit  : 0/0
  3650 ;;		Unchanged: 0/0
  3651 ;; Data sizes:     COMRAM   BANK0   BANK1   BANK2   BANK3   BANK4   BANK5   BANK6   BANK7
  3652 ;;      Params:         4       0       0       0       0       0       0       0       0
  3653 ;;      Locals:         2       0       0       0       0       0       0       0       0
  3654 ;;      Temps:          0       0       0       0       0       0       0       0       0
  3655 ;;      Totals:         6       0       0       0       0       0       0       0       0
  3656 ;;Total ram usage:        6 bytes
  3657 ;; Hardware stack levels used:    1
  3658 ;; This function calls:
  3659 ;;		Nothing
  3660 ;; This function is called by:
  3661 ;;		_keypad_Update
  3662 ;; This function uses a non-reentrant model
  3663 ;;
  3664                           
  3665                           	psect	text16
  3666  001596                     __ptext16:
  3667                           	opt callstack 0
  3668  001596                     ___wmul:
  3669                           	opt callstack 23
  3670  001596  5001               	movf	___wmul@multiplier^0,w,c
  3671  001598  0203               	mulwf	___wmul@multiplicand^0,c
  3672  00159A  CFF3 F005          	movff	prodl,___wmul@product
  3673  00159E  CFF4 F006          	movff	prodh,___wmul@product+1
  3674  0015A2  5001               	movf	___wmul@multiplier^0,w,c
  3675  0015A4  0204               	mulwf	(___wmul@multiplicand+1)^0,c
  3676  0015A6  50F3               	movf	243,w,c
  3677  0015A8  2606               	addwf	(___wmul@product+1)^0,f,c
  3678  0015AA  5002               	movf	(___wmul@multiplier+1)^0,w,c
  3679  0015AC  0203               	mulwf	___wmul@multiplicand^0,c
  3680  0015AE  50F3               	movf	243,w,c
  3681  0015B0  2606               	addwf	(___wmul@product+1)^0,f,c
  3682  0015B2  C005  F001         	movff	___wmul@product,?___wmul
  3683  0015B6  C006  F002         	movff	___wmul@product+1,?___wmul+1
  3684  0015BA  0012               	return		;funcret
  3685  0015BC                     __end_of___wmul:
  3686                           	opt callstack 0
  3687                           
  3688 ;; *************** function _LCD_SetSymbol *****************
  3689 ;; Defined at:
  3690 ;;		line 265 in file "LCD.c"
  3691 ;; Parameters:    Size  Location     Type
  3692 ;;  sym             1    wreg     unsigned char 
  3693 ;;  row             1    8[COMRAM] unsigned char 
  3694 ;;  column          1    9[COMRAM] unsigned char 
  3695 ;; Auto vars:     Size  Location     Type
  3696 ;;  sym             1   15[COMRAM] unsigned char 
  3697 ;; Return value:  Size  Location     Type
  3698 ;;                  1    wreg      void 
  3699 ;; Registers used:
  3700 ;;		wreg, fsr2l, fsr2h, status,2, status,0, prodl, prodh, cstack
  3701 ;; Tracked objects:
  3702 ;;		On entry : 0/0
  3703 ;;		On exit  : 0/0
  3704 ;;		Unchanged: 0/0
  3705 ;; Data sizes:     COMRAM   BANK0   BANK1   BANK2   BANK3   BANK4   BANK5   BANK6   BANK7
  3706 ;;      Params:         2       0       0       0       0       0       0       0       0
  3707 ;;      Locals:         1       0       0       0       0       0       0       0       0
  3708 ;;      Temps:          5       0       0       0       0       0       0       0       0
  3709 ;;      Totals:         8       0       0       0       0       0       0       0       0
  3710 ;;Total ram usage:        8 bytes
  3711 ;; Hardware stack levels used:    1
  3712 ;; Hardware stack levels required when called:    1
  3713 ;; This function calls:
  3714 ;;		___awdiv
  3715 ;; This function is called by:
  3716 ;;		_TMR0_ISR
  3717 ;;		_keypad_Update
  3718 ;; This function uses a non-reentrant model
  3719 ;;
  3720                           
  3721                           	psect	text17
  3722  00131A                     __ptext17:
  3723                           	opt callstack 0
  3724  00131A                     _LCD_SetSymbol:
  3725                           	opt callstack 22
  3726                           
  3727                           ;incstack = 0
  3728                           ;LCD_SetSymbol@sym stored from wreg
  3729  00131A  6E10               	movwf	LCD_SetSymbol@sym^0,c
  3730  00131C                     
  3731                           ;LCD.c: 265: void LCD_SetSymbol(uint8 sym,uint8 row,uint8 column);LCD.c: 266: {;LCD.c: 2
      +                          67:     if(row >= (2) && column >= (40))return;
  3732  00131C  0E01               	movlw	1
  3733  00131E  6409               	cpfsgt	LCD_SetSymbol@row^0,c
  3734  001320  EF94  F009         	goto	i2u108_41
  3735  001324  EF96  F009         	goto	i2u108_40
  3736  001328                     i2u108_41:
  3737  001328  EFA0  F009         	goto	i2l1664
  3738  00132C                     i2u108_40:
  3739  00132C  0E27               	movlw	39
  3740  00132E  640A               	cpfsgt	LCD_SetSymbol@column^0,c
  3741  001330  EF9C  F009         	goto	i2u109_41
  3742  001334  EF9E  F009         	goto	i2u109_40
  3743  001338                     i2u109_41:
  3744  001338  EFA0  F009         	goto	i2l1664
  3745  00133C                     i2u109_40:
  3746  00133C  EFE3  F009         	goto	i2l97
  3747  001340                     i2l1664:
  3748                           
  3749                           ;LCD.c: 268:     LCD_Data_Buffer[row][column] = sym;
  3750  001340  5009               	movf	LCD_SetSymbol@row^0,w,c
  3751  001342  0D28               	mullw	40
  3752  001344  0E00               	movlw	low _LCD_Data_Buffer
  3753  001346  6E0B               	movwf	??_LCD_SetSymbol^0,c
  3754  001348  0E01               	movlw	high _LCD_Data_Buffer
  3755  00134A  6E0C               	movwf	(??_LCD_SetSymbol+1)^0,c
  3756  00134C  50F3               	movf	243,w,c
  3757  00134E  260B               	addwf	??_LCD_SetSymbol^0,f,c
  3758  001350  50F4               	movf	244,w,c
  3759  001352  220C               	addwfc	(??_LCD_SetSymbol+1)^0,f,c
  3760  001354  500A               	movf	LCD_SetSymbol@column^0,w,c
  3761  001356  240B               	addwf	??_LCD_SetSymbol^0,w,c
  3762  001358  6ED9               	movwf	fsr2l,c
  3763  00135A  0E00               	movlw	0
  3764  00135C  200C               	addwfc	(??_LCD_SetSymbol+1)^0,w,c
  3765  00135E  6EDA               	movwf	fsr2h,c
  3766  001360  C010  FFDF         	movff	LCD_SetSymbol@sym,indf2
  3767  001364                     
  3768                           ;LCD.c: 269:     update_flag[row][column/16] |= (0x0001<<(column%16));
  3769  001364  C00A  F00B         	movff	LCD_SetSymbol@column,??_LCD_SetSymbol
  3770  001368  0E0F               	movlw	15
  3771  00136A  160B               	andwf	??_LCD_SetSymbol^0,f,c
  3772  00136C  0E01               	movlw	1
  3773  00136E  6E0C               	movwf	(??_LCD_SetSymbol+1)^0,c
  3774  001370  0E00               	movlw	0
  3775  001372  6E0D               	movwf	(??_LCD_SetSymbol+2)^0,c
  3776  001374  2A0B               	incf	??_LCD_SetSymbol^0,f,c
  3777  001376  EFC0  F009         	goto	i2u110_44
  3778  00137A                     i2u110_45:
  3779  00137A  90D8               	bcf	status,0,c
  3780  00137C  360C               	rlcf	(??_LCD_SetSymbol+1)^0,f,c
  3781  00137E  360D               	rlcf	(??_LCD_SetSymbol+2)^0,f,c
  3782  001380                     i2u110_44:
  3783  001380  2E0B               	decfsz	??_LCD_SetSymbol^0,f,c
  3784  001382  EFBD  F009         	goto	i2u110_45
  3785  001386  C00A  F001         	movff	LCD_SetSymbol@column,___awdiv@dividend
  3786  00138A  6A02               	clrf	(___awdiv@dividend+1)^0,c
  3787  00138C  0E00               	movlw	0
  3788  00138E  6E04               	movwf	(___awdiv@divisor+1)^0,c
  3789  001390  0E10               	movlw	16
  3790  001392  6E03               	movwf	___awdiv@divisor^0,c
  3791  001394  ECD0  F008         	call	___awdiv	;wreg free
  3792  001398  90D8               	bcf	status,0,c
  3793  00139A  3601               	rlcf	?___awdiv^0,f,c
  3794  00139C  3602               	rlcf	(?___awdiv+1)^0,f,c
  3795  00139E  5009               	movf	LCD_SetSymbol@row^0,w,c
  3796  0013A0  0D2A               	mullw	42
  3797  0013A2  0E60               	movlw	low _update_flag
  3798  0013A4  6E0E               	movwf	(??_LCD_SetSymbol+3)^0,c
  3799  0013A6  0E00               	movlw	high _update_flag
  3800  0013A8  6E0F               	movwf	(??_LCD_SetSymbol+4)^0,c
  3801  0013AA  50F3               	movf	243,w,c
  3802  0013AC  260E               	addwf	(??_LCD_SetSymbol+3)^0,f,c
  3803  0013AE  50F4               	movf	244,w,c
  3804  0013B0  220F               	addwfc	(??_LCD_SetSymbol+4)^0,f,c
  3805  0013B2  5001               	movf	?___awdiv^0,w,c
  3806  0013B4  240E               	addwf	(??_LCD_SetSymbol+3)^0,w,c
  3807  0013B6  6ED9               	movwf	fsr2l,c
  3808  0013B8  5002               	movf	(?___awdiv+1)^0,w,c
  3809  0013BA  200F               	addwfc	(??_LCD_SetSymbol+4)^0,w,c
  3810  0013BC  6EDA               	movwf	fsr2h,c
  3811  0013BE  500C               	movf	(??_LCD_SetSymbol+1)^0,w,c
  3812  0013C0  12DE               	iorwf	postinc2,f,c
  3813  0013C2  500D               	movf	(??_LCD_SetSymbol+2)^0,w,c
  3814  0013C4  12DD               	iorwf	postdec2,f,c
  3815  0013C6                     i2l97:
  3816  0013C6  0012               	return		;funcret
  3817  0013C8                     __end_of_LCD_SetSymbol:
  3818                           	opt callstack 0
  3819                           
  3820 ;; *************** function ___awdiv *****************
  3821 ;; Defined at:
  3822 ;;		line 7 in file "C:\Program Files (x86)\Microchip\xc8\v2.10\pic\sources\c99\common\awdiv.c"
  3823 ;; Parameters:    Size  Location     Type
  3824 ;;  dividend        2    0[COMRAM] int 
  3825 ;;  divisor         2    2[COMRAM] int 
  3826 ;; Auto vars:     Size  Location     Type
  3827 ;;  quotient        2    6[COMRAM] int 
  3828 ;;  sign            1    5[COMRAM] unsigned char 
  3829 ;;  counter         1    4[COMRAM] unsigned char 
  3830 ;; Return value:  Size  Location     Type
  3831 ;;                  2    0[COMRAM] int 
  3832 ;; Registers used:
  3833 ;;		wreg, status,2, status,0
  3834 ;; Tracked objects:
  3835 ;;		On entry : 0/0
  3836 ;;		On exit  : 0/0
  3837 ;;		Unchanged: 0/0
  3838 ;; Data sizes:     COMRAM   BANK0   BANK1   BANK2   BANK3   BANK4   BANK5   BANK6   BANK7
  3839 ;;      Params:         4       0       0       0       0       0       0       0       0
  3840 ;;      Locals:         4       0       0       0       0       0       0       0       0
  3841 ;;      Temps:          0       0       0       0       0       0       0       0       0
  3842 ;;      Totals:         8       0       0       0       0       0       0       0       0
  3843 ;;Total ram usage:        8 bytes
  3844 ;; Hardware stack levels used:    1
  3845 ;; This function calls:
  3846 ;;		Nothing
  3847 ;; This function is called by:
  3848 ;;		_LCD_SetSymbol
  3849 ;;		_LCD_SetString
  3850 ;; This function uses a non-reentrant model
  3851 ;;
  3852                           
  3853                           	psect	text18
  3854  0011A0                     __ptext18:
  3855                           	opt callstack 0
  3856  0011A0                     ___awdiv:
  3857                           	opt callstack 22
  3858  0011A0  0E00               	movlw	0
  3859  0011A2  6E06               	movwf	___awdiv@sign^0,c
  3860  0011A4  BE04               	btfsc	(___awdiv@divisor+1)^0,7,c
  3861  0011A6  EFD9  F008         	goto	i2u92_40
  3862  0011AA  EFD7  F008         	goto	i2u92_41
  3863  0011AE                     i2u92_41:
  3864  0011AE  EFDF  F008         	goto	i2l1586
  3865  0011B2                     i2u92_40:
  3866  0011B2  6C03               	negf	___awdiv@divisor^0,c
  3867  0011B4  1E04               	comf	(___awdiv@divisor+1)^0,f,c
  3868  0011B6  B0D8               	btfsc	status,0,c
  3869  0011B8  2A04               	incf	(___awdiv@divisor+1)^0,f,c
  3870  0011BA  0E01               	movlw	1
  3871  0011BC  6E06               	movwf	___awdiv@sign^0,c
  3872  0011BE                     i2l1586:
  3873  0011BE  BE02               	btfsc	(___awdiv@dividend+1)^0,7,c
  3874  0011C0  EFE6  F008         	goto	i2u93_40
  3875  0011C4  EFE4  F008         	goto	i2u93_41
  3876  0011C8                     i2u93_41:
  3877  0011C8  EFEC  F008         	goto	i2l1592
  3878  0011CC                     i2u93_40:
  3879  0011CC  6C01               	negf	___awdiv@dividend^0,c
  3880  0011CE  1E02               	comf	(___awdiv@dividend+1)^0,f,c
  3881  0011D0  B0D8               	btfsc	status,0,c
  3882  0011D2  2A02               	incf	(___awdiv@dividend+1)^0,f,c
  3883  0011D4  0E01               	movlw	1
  3884  0011D6  1A06               	xorwf	___awdiv@sign^0,f,c
  3885  0011D8                     i2l1592:
  3886  0011D8  0E00               	movlw	0
  3887  0011DA  6E08               	movwf	(___awdiv@quotient+1)^0,c
  3888  0011DC  0E00               	movlw	0
  3889  0011DE  6E07               	movwf	___awdiv@quotient^0,c
  3890  0011E0  5003               	movf	___awdiv@divisor^0,w,c
  3891  0011E2  1004               	iorwf	(___awdiv@divisor+1)^0,w,c
  3892  0011E4  B4D8               	btfsc	status,2,c
  3893  0011E6  EFF7  F008         	goto	i2u94_41
  3894  0011EA  EFF9  F008         	goto	i2u94_40
  3895  0011EE                     i2u94_41:
  3896  0011EE  EF21  F009         	goto	i2l1614
  3897  0011F2                     i2u94_40:
  3898  0011F2  0E01               	movlw	1
  3899  0011F4  6E05               	movwf	___awdiv@counter^0,c
  3900  0011F6  EF01  F009         	goto	i2l1600
  3901  0011FA                     i2l1598:
  3902  0011FA  90D8               	bcf	status,0,c
  3903  0011FC  3603               	rlcf	___awdiv@divisor^0,f,c
  3904  0011FE  3604               	rlcf	(___awdiv@divisor+1)^0,f,c
  3905  001200  2A05               	incf	___awdiv@counter^0,f,c
  3906  001202                     i2l1600:
  3907  001202  AE04               	btfss	(___awdiv@divisor+1)^0,7,c
  3908  001204  EF06  F009         	goto	i2u95_41
  3909  001208  EF08  F009         	goto	i2u95_40
  3910  00120C                     i2u95_41:
  3911  00120C  EFFD  F008         	goto	i2l1598
  3912  001210                     i2u95_40:
  3913  001210                     i2l1602:
  3914  001210  90D8               	bcf	status,0,c
  3915  001212  3607               	rlcf	___awdiv@quotient^0,f,c
  3916  001214  3608               	rlcf	(___awdiv@quotient+1)^0,f,c
  3917  001216  5003               	movf	___awdiv@divisor^0,w,c
  3918  001218  5C01               	subwf	___awdiv@dividend^0,w,c
  3919  00121A  5004               	movf	(___awdiv@divisor+1)^0,w,c
  3920  00121C  5802               	subwfb	(___awdiv@dividend+1)^0,w,c
  3921  00121E  A0D8               	btfss	status,0,c
  3922  001220  EF14  F009         	goto	i2u96_41
  3923  001224  EF16  F009         	goto	i2u96_40
  3924  001228                     i2u96_41:
  3925  001228  EF1B  F009         	goto	i2l1610
  3926  00122C                     i2u96_40:
  3927  00122C  5003               	movf	___awdiv@divisor^0,w,c
  3928  00122E  5E01               	subwf	___awdiv@dividend^0,f,c
  3929  001230  5004               	movf	(___awdiv@divisor+1)^0,w,c
  3930  001232  5A02               	subwfb	(___awdiv@dividend+1)^0,f,c
  3931  001234  8007               	bsf	___awdiv@quotient^0,0,c
  3932  001236                     i2l1610:
  3933  001236  90D8               	bcf	status,0,c
  3934  001238  3204               	rrcf	(___awdiv@divisor+1)^0,f,c
  3935  00123A  3203               	rrcf	___awdiv@divisor^0,f,c
  3936  00123C  2E05               	decfsz	___awdiv@counter^0,f,c
  3937  00123E  EF08  F009         	goto	i2l1602
  3938  001242                     i2l1614:
  3939  001242  5006               	movf	___awdiv@sign^0,w,c
  3940  001244  B4D8               	btfsc	status,2,c
  3941  001246  EF27  F009         	goto	i2u97_41
  3942  00124A  EF29  F009         	goto	i2u97_40
  3943  00124E                     i2u97_41:
  3944  00124E  EF2D  F009         	goto	i2l1618
  3945  001252                     i2u97_40:
  3946  001252  6C07               	negf	___awdiv@quotient^0,c
  3947  001254  1E08               	comf	(___awdiv@quotient+1)^0,f,c
  3948  001256  B0D8               	btfsc	status,0,c
  3949  001258  2A08               	incf	(___awdiv@quotient+1)^0,f,c
  3950  00125A                     i2l1618:
  3951  00125A  C007  F001         	movff	___awdiv@quotient,?___awdiv
  3952  00125E  C008  F002         	movff	___awdiv@quotient+1,?___awdiv+1
  3953  001262  0012               	return		;funcret
  3954  001264                     __end_of___awdiv:
  3955                           	opt callstack 0
  3956                           
  3957 ;; *************** function _LCD_Update *****************
  3958 ;; Defined at:
  3959 ;;		line 313 in file "LCD.c"
  3960 ;; Parameters:    Size  Location     Type
  3961 ;;		None
  3962 ;; Auto vars:     Size  Location     Type
  3963 ;;  address         1   12[COMRAM] unsigned char 
  3964 ;;  j               1   15[COMRAM] unsigned char 
  3965 ;;  i               1   14[COMRAM] unsigned char 
  3966 ;;  updated         1   13[COMRAM] unsigned char 
  3967 ;; Return value:  Size  Location     Type
  3968 ;;                  1    wreg      void 
  3969 ;; Registers used:
  3970 ;;		wreg, fsr2l, fsr2h, status,2, status,0, prodl, prodh, cstack
  3971 ;; Tracked objects:
  3972 ;;		On entry : 0/0
  3973 ;;		On exit  : 0/0
  3974 ;;		Unchanged: 0/0
  3975 ;; Data sizes:     COMRAM   BANK0   BANK1   BANK2   BANK3   BANK4   BANK5   BANK6   BANK7
  3976 ;;      Params:         0       0       0       0       0       0       0       0       0
  3977 ;;      Locals:         4       0       0       0       0       0       0       0       0
  3978 ;;      Temps:          9       0       0       0       0       0       0       0       0
  3979 ;;      Totals:        13       0       0       0       0       0       0       0       0
  3980 ;;Total ram usage:       13 bytes
  3981 ;; Hardware stack levels used:    1
  3982 ;; Hardware stack levels required when called:    3
  3983 ;; This function calls:
  3984 ;;		_LCD_SetDDRAM
  3985 ;;		i2_LCD_Write_Symbol
  3986 ;; This function is called by:
  3987 ;;		_TMR0_ISR
  3988 ;; This function uses a non-reentrant model
  3989 ;;
  3990                           
  3991                           	psect	text19
  3992  000C8C                     __ptext19:
  3993                           	opt callstack 0
  3994  000C8C                     _LCD_Update:
  3995                           	opt callstack 21
  3996  000C8C                     
  3997                           ;LCD.c: 315:     uint8 j,i,updated = 0;
  3998  000C8C  0E00               	movlw	0
  3999  000C8E  6E0E               	movwf	LCD_Update@updated^0,c
  4000  000C90                     
  4001                           ;LCD.c: 316:     tick_counter += (5);
  4002  000C90  0E05               	movlw	5
  4003  000C92  2635               	addwf	_tick_counter^0,f,c
  4004  000C94  0E00               	movlw	0
  4005  000C96  2236               	addwfc	(_tick_counter+1)^0,f,c
  4006  000C98                     
  4007                           ;LCD.c: 317:     if(tick_counter != (5))return;
  4008  000C98  0E05               	movlw	5
  4009  000C9A  1835               	xorwf	_tick_counter^0,w,c
  4010  000C9C  1036               	iorwf	(_tick_counter+1)^0,w,c
  4011  000C9E  B4D8               	btfsc	status,2,c
  4012  000CA0  EF54  F006         	goto	i2u111_41
  4013  000CA4  EF56  F006         	goto	i2u111_40
  4014  000CA8                     i2u111_41:
  4015  000CA8  EF58  F006         	goto	i2l1738
  4016  000CAC                     i2u111_40:
  4017  000CAC  EF55  F007         	goto	i2l111
  4018  000CB0                     i2l1738:
  4019                           
  4020                           ;LCD.c: 319:     tick_counter = 0;
  4021  000CB0  0E00               	movlw	0
  4022  000CB2  6E36               	movwf	(_tick_counter+1)^0,c
  4023  000CB4  0E00               	movlw	0
  4024  000CB6  6E35               	movwf	_tick_counter^0,c
  4025                           
  4026                           ;LCD.c: 321:     for(j = 0;j<(((40)/16)+1);j++)
  4027  000CB8  0E00               	movlw	0
  4028  000CBA  6E10               	movwf	LCD_Update@j^0,c
  4029  000CBC                     i2l1744:
  4030                           
  4031                           ;LCD.c: 322:     {;LCD.c: 323:         if(update_flag[line_counter][j]!=0)
  4032  000CBC  5010               	movf	LCD_Update@j^0,w,c
  4033  000CBE  0D02               	mullw	2
  4034  000CC0  CFF3 F004          	movff	prodl,??_LCD_Update
  4035  000CC4  CFF4 F005          	movff	prodh,??_LCD_Update+1
  4036  000CC8  503A               	movf	_line_counter^0,w,c
  4037  000CCA  0D2A               	mullw	42
  4038  000CCC  0E60               	movlw	low _update_flag
  4039  000CCE  6E06               	movwf	(??_LCD_Update+2)^0,c
  4040  000CD0  0E00               	movlw	high _update_flag
  4041  000CD2  6E07               	movwf	(??_LCD_Update+3)^0,c
  4042  000CD4  50F3               	movf	243,w,c
  4043  000CD6  2606               	addwf	(??_LCD_Update+2)^0,f,c
  4044  000CD8  50F4               	movf	244,w,c
  4045  000CDA  2207               	addwfc	(??_LCD_Update+3)^0,f,c
  4046  000CDC  5004               	movf	??_LCD_Update^0,w,c
  4047  000CDE  2406               	addwf	(??_LCD_Update+2)^0,w,c
  4048  000CE0  6ED9               	movwf	fsr2l,c
  4049  000CE2  5005               	movf	(??_LCD_Update+1)^0,w,c
  4050  000CE4  2007               	addwfc	(??_LCD_Update+3)^0,w,c
  4051  000CE6  6EDA               	movwf	fsr2h,c
  4052  000CE8  50DE               	movf	postinc2,w,c
  4053  000CEA  10DE               	iorwf	postinc2,w,c
  4054  000CEC  B4D8               	btfsc	status,2,c
  4055  000CEE  EF7B  F006         	goto	i2u112_41
  4056  000CF2  EF7D  F006         	goto	i2u112_40
  4057  000CF6                     i2u112_41:
  4058  000CF6  EF40  F007         	goto	i2l1772
  4059  000CFA                     i2u112_40:
  4060  000CFA                     
  4061                           ;LCD.c: 324:         {;LCD.c: 326:             for(i=0;i<16;i++)
  4062  000CFA  0E00               	movlw	0
  4063  000CFC  6E0F               	movwf	LCD_Update@i^0,c
  4064  000CFE                     i2l1752:
  4065                           
  4066                           ;LCD.c: 327:             {;LCD.c: 329:                 if((update_flag[line_counter][j])
      +                          &(0x0001<<i))
  4067  000CFE  5010               	movf	LCD_Update@j^0,w,c
  4068  000D00  0D02               	mullw	2
  4069  000D02  CFF3 F004          	movff	prodl,??_LCD_Update
  4070  000D06  CFF4 F005          	movff	prodh,??_LCD_Update+1
  4071  000D0A  503A               	movf	_line_counter^0,w,c
  4072  000D0C  0D2A               	mullw	42
  4073  000D0E  0E60               	movlw	low _update_flag
  4074  000D10  6E06               	movwf	(??_LCD_Update+2)^0,c
  4075  000D12  0E00               	movlw	high _update_flag
  4076  000D14  6E07               	movwf	(??_LCD_Update+3)^0,c
  4077  000D16  50F3               	movf	243,w,c
  4078  000D18  2606               	addwf	(??_LCD_Update+2)^0,f,c
  4079  000D1A  50F4               	movf	244,w,c
  4080  000D1C  2207               	addwfc	(??_LCD_Update+3)^0,f,c
  4081  000D1E  5004               	movf	??_LCD_Update^0,w,c
  4082  000D20  2406               	addwf	(??_LCD_Update+2)^0,w,c
  4083  000D22  6ED9               	movwf	fsr2l,c
  4084  000D24  5005               	movf	(??_LCD_Update+1)^0,w,c
  4085  000D26  2007               	addwfc	(??_LCD_Update+3)^0,w,c
  4086  000D28  6EDA               	movwf	fsr2h,c
  4087  000D2A  CFDE F008          	movff	postinc2,??_LCD_Update+4
  4088  000D2E  CFDD F009          	movff	postdec2,??_LCD_Update+5
  4089  000D32  C00F  F00A         	movff	LCD_Update@i,??_LCD_Update+6
  4090  000D36  0E01               	movlw	1
  4091  000D38  6E0B               	movwf	(??_LCD_Update+7)^0,c
  4092  000D3A  0E00               	movlw	0
  4093  000D3C  6E0C               	movwf	(??_LCD_Update+8)^0,c
  4094  000D3E  2A0A               	incf	(??_LCD_Update+6)^0,f,c
  4095  000D40  EFA5  F006         	goto	i2u113_44
  4096  000D44                     i2u113_45:
  4097  000D44  90D8               	bcf	status,0,c
  4098  000D46  360B               	rlcf	(??_LCD_Update+7)^0,f,c
  4099  000D48  360C               	rlcf	(??_LCD_Update+8)^0,f,c
  4100  000D4A                     i2u113_44:
  4101  000D4A  2E0A               	decfsz	(??_LCD_Update+6)^0,f,c
  4102  000D4C  EFA2  F006         	goto	i2u113_45
  4103  000D50  5008               	movf	(??_LCD_Update+4)^0,w,c
  4104  000D52  160B               	andwf	(??_LCD_Update+7)^0,f,c
  4105  000D54  5009               	movf	(??_LCD_Update+5)^0,w,c
  4106  000D56  160C               	andwf	(??_LCD_Update+8)^0,f,c
  4107  000D58  500B               	movf	(??_LCD_Update+7)^0,w,c
  4108  000D5A  100C               	iorwf	(??_LCD_Update+8)^0,w,c
  4109  000D5C  B4D8               	btfsc	status,2,c
  4110  000D5E  EFB3  F006         	goto	i2u114_41
  4111  000D62  EFB5  F006         	goto	i2u114_40
  4112  000D66                     i2u114_41:
  4113  000D66  EF37  F007         	goto	i2l1768
  4114  000D6A                     i2u114_40:
  4115  000D6A                     
  4116                           ;LCD.c: 330:                 {;LCD.c: 332:                     uint8 address = lines_off
      +                          set_adresses[line_counter] + ((j*16)+i);
  4117  000D6A  0E43               	movlw	low _lines_offset_adresses
  4118  000D6C  243A               	addwf	_line_counter^0,w,c
  4119  000D6E  6ED9               	movwf	fsr2l,c
  4120  000D70  6ADA               	clrf	fsr2h,c
  4121  000D72  0E00               	movlw	high _lines_offset_adresses
  4122  000D74  22DA               	addwfc	fsr2h,f,c
  4123  000D76  50DF               	movf	indf2,w,c
  4124  000D78  6E04               	movwf	??_LCD_Update^0,c
  4125  000D7A  5010               	movf	LCD_Update@j^0,w,c
  4126  000D7C  0D10               	mullw	16
  4127  000D7E  50F3               	movf	243,w,c
  4128  000D80  2404               	addwf	??_LCD_Update^0,w,c
  4129  000D82  240F               	addwf	LCD_Update@i^0,w,c
  4130  000D84  6E0D               	movwf	LCD_Update@address^0,c
  4131  000D86                     
  4132                           ;LCD.c: 334:                     LCD_SetDDRAM(address);
  4133  000D86  500D               	movf	LCD_Update@address^0,w,c
  4134  000D88  EC38  F00B         	call	_LCD_SetDDRAM
  4135  000D8C                     
  4136                           ;LCD.c: 336:                     LCD_Write_Symbol(LCD_Data_Buffer[line_counter][((j*16)+
      +                          i)]);
  4137  000D8C  503A               	movf	_line_counter^0,w,c
  4138  000D8E  0D28               	mullw	40
  4139  000D90  0E00               	movlw	low _LCD_Data_Buffer
  4140  000D92  6E04               	movwf	??_LCD_Update^0,c
  4141  000D94  0E01               	movlw	high _LCD_Data_Buffer
  4142  000D96  6E05               	movwf	(??_LCD_Update+1)^0,c
  4143  000D98  50F3               	movf	243,w,c
  4144  000D9A  2604               	addwf	??_LCD_Update^0,f,c
  4145  000D9C  50F4               	movf	244,w,c
  4146  000D9E  2205               	addwfc	(??_LCD_Update+1)^0,f,c
  4147  000DA0  5010               	movf	LCD_Update@j^0,w,c
  4148  000DA2  0D10               	mullw	16
  4149  000DA4  50F3               	movf	243,w,c
  4150  000DA6  2604               	addwf	??_LCD_Update^0,f,c
  4151  000DA8  50F4               	movf	244,w,c
  4152  000DAA  2205               	addwfc	(??_LCD_Update+1)^0,f,c
  4153  000DAC  500F               	movf	LCD_Update@i^0,w,c
  4154  000DAE  2404               	addwf	??_LCD_Update^0,w,c
  4155  000DB0  6ED9               	movwf	fsr2l,c
  4156  000DB2  0E00               	movlw	0
  4157  000DB4  2005               	addwfc	(??_LCD_Update+1)^0,w,c
  4158  000DB6  6EDA               	movwf	fsr2h,c
  4159  000DB8  50DF               	movf	indf2,w,c
  4160  000DBA  ECF0  F00A         	call	i2_LCD_Write_Symbol
  4161  000DBE                     
  4162                           ;LCD.c: 338:                     update_flag[line_counter][j] &= ~(1<<i);
  4163  000DBE  C00F  F004         	movff	LCD_Update@i,??_LCD_Update
  4164  000DC2  0E01               	movlw	1
  4165  000DC4  6E05               	movwf	(??_LCD_Update+1)^0,c
  4166  000DC6  0E00               	movlw	0
  4167  000DC8  6E06               	movwf	(??_LCD_Update+2)^0,c
  4168  000DCA  2A04               	incf	??_LCD_Update^0,f,c
  4169  000DCC  EFEB  F006         	goto	i2u115_44
  4170  000DD0                     i2u115_45:
  4171  000DD0  90D8               	bcf	status,0,c
  4172  000DD2  3605               	rlcf	(??_LCD_Update+1)^0,f,c
  4173  000DD4  3606               	rlcf	(??_LCD_Update+2)^0,f,c
  4174  000DD6                     i2u115_44:
  4175  000DD6  2E04               	decfsz	??_LCD_Update^0,f,c
  4176  000DD8  EFE8  F006         	goto	i2u115_45
  4177  000DDC  1C05               	comf	(??_LCD_Update+1)^0,w,c
  4178  000DDE  6E07               	movwf	(??_LCD_Update+3)^0,c
  4179  000DE0  1C06               	comf	(??_LCD_Update+2)^0,w,c
  4180  000DE2  6E08               	movwf	(??_LCD_Update+4)^0,c
  4181  000DE4  5010               	movf	LCD_Update@j^0,w,c
  4182  000DE6  0D02               	mullw	2
  4183  000DE8  CFF3 F009          	movff	prodl,??_LCD_Update+5
  4184  000DEC  CFF4 F00A          	movff	prodh,??_LCD_Update+6
  4185  000DF0  503A               	movf	_line_counter^0,w,c
  4186  000DF2  0D2A               	mullw	42
  4187  000DF4  0E60               	movlw	low _update_flag
  4188  000DF6  6E0B               	movwf	(??_LCD_Update+7)^0,c
  4189  000DF8  0E00               	movlw	high _update_flag
  4190  000DFA  6E0C               	movwf	(??_LCD_Update+8)^0,c
  4191  000DFC  50F3               	movf	243,w,c
  4192  000DFE  260B               	addwf	(??_LCD_Update+7)^0,f,c
  4193  000E00  50F4               	movf	244,w,c
  4194  000E02  220C               	addwfc	(??_LCD_Update+8)^0,f,c
  4195  000E04  5009               	movf	(??_LCD_Update+5)^0,w,c
  4196  000E06  240B               	addwf	(??_LCD_Update+7)^0,w,c
  4197  000E08  6ED9               	movwf	fsr2l,c
  4198  000E0A  500A               	movf	(??_LCD_Update+6)^0,w,c
  4199  000E0C  200C               	addwfc	(??_LCD_Update+8)^0,w,c
  4200  000E0E  6EDA               	movwf	fsr2h,c
  4201  000E10  5007               	movf	(??_LCD_Update+3)^0,w,c
  4202  000E12  16DE               	andwf	postinc2,f,c
  4203  000E14  5008               	movf	(??_LCD_Update+4)^0,w,c
  4204  000E16  16DD               	andwf	postdec2,f,c
  4205  000E18                     
  4206                           ;LCD.c: 340:                     updated++;
  4207  000E18  2A0E               	incf	LCD_Update@updated^0,f,c
  4208  000E1A                     
  4209                           ;LCD.c: 341:                     if(updated == (5) || update_flag[line_counter][j]==0 )b
      +                          reak;
  4210  000E1A  0E05               	movlw	5
  4211  000E1C  180E               	xorwf	LCD_Update@updated^0,w,c
  4212  000E1E  B4D8               	btfsc	status,2,c
  4213  000E20  EF14  F007         	goto	i2u116_41
  4214  000E24  EF16  F007         	goto	i2u116_40
  4215  000E28                     i2u116_41:
  4216  000E28  EF40  F007         	goto	i2l1772
  4217  000E2C                     i2u116_40:
  4218  000E2C  5010               	movf	LCD_Update@j^0,w,c
  4219  000E2E  0D02               	mullw	2
  4220  000E30  CFF3 F004          	movff	prodl,??_LCD_Update
  4221  000E34  CFF4 F005          	movff	prodh,??_LCD_Update+1
  4222  000E38  503A               	movf	_line_counter^0,w,c
  4223  000E3A  0D2A               	mullw	42
  4224  000E3C  0E60               	movlw	low _update_flag
  4225  000E3E  6E06               	movwf	(??_LCD_Update+2)^0,c
  4226  000E40  0E00               	movlw	high _update_flag
  4227  000E42  6E07               	movwf	(??_LCD_Update+3)^0,c
  4228  000E44  50F3               	movf	243,w,c
  4229  000E46  2606               	addwf	(??_LCD_Update+2)^0,f,c
  4230  000E48  50F4               	movf	244,w,c
  4231  000E4A  2207               	addwfc	(??_LCD_Update+3)^0,f,c
  4232  000E4C  5004               	movf	??_LCD_Update^0,w,c
  4233  000E4E  2406               	addwf	(??_LCD_Update+2)^0,w,c
  4234  000E50  6ED9               	movwf	fsr2l,c
  4235  000E52  5005               	movf	(??_LCD_Update+1)^0,w,c
  4236  000E54  2007               	addwfc	(??_LCD_Update+3)^0,w,c
  4237  000E56  6EDA               	movwf	fsr2h,c
  4238  000E58  50DE               	movf	postinc2,w,c
  4239  000E5A  10DE               	iorwf	postinc2,w,c
  4240  000E5C  A4D8               	btfss	status,2,c
  4241  000E5E  EF33  F007         	goto	i2u117_41
  4242  000E62  EF35  F007         	goto	i2u117_40
  4243  000E66                     i2u117_41:
  4244  000E66  EF37  F007         	goto	i2l1768
  4245  000E6A                     i2u117_40:
  4246  000E6A  EF40  F007         	goto	i2l1772
  4247  000E6E                     i2l1768:
  4248                           
  4249                           ;LCD.c: 343:             }
  4250  000E6E  2A0F               	incf	LCD_Update@i^0,f,c
  4251  000E70  0E0F               	movlw	15
  4252  000E72  640F               	cpfsgt	LCD_Update@i^0,c
  4253  000E74  EF3E  F007         	goto	i2u118_41
  4254  000E78  EF40  F007         	goto	i2u118_40
  4255  000E7C                     i2u118_41:
  4256  000E7C  EF7F  F006         	goto	i2l1752
  4257  000E80                     i2u118_40:
  4258  000E80                     i2l1772:
  4259                           
  4260                           ;LCD.c: 345:     }
  4261  000E80  2A10               	incf	LCD_Update@j^0,f,c
  4262  000E82  0E02               	movlw	2
  4263  000E84  6410               	cpfsgt	LCD_Update@j^0,c
  4264  000E86  EF47  F007         	goto	i2u119_41
  4265  000E8A  EF49  F007         	goto	i2u119_40
  4266  000E8E                     i2u119_41:
  4267  000E8E  EF5E  F006         	goto	i2l1744
  4268  000E92                     i2u119_40:
  4269  000E92                     
  4270                           ;LCD.c: 346:     line_counter++;
  4271  000E92  2A3A               	incf	_line_counter^0,f,c
  4272  000E94                     
  4273                           ;LCD.c: 347:     if(line_counter == (2))line_counter = 0;
  4274  000E94  0E02               	movlw	2
  4275  000E96  183A               	xorwf	_line_counter^0,w,c
  4276  000E98  A4D8               	btfss	status,2,c
  4277  000E9A  EF51  F007         	goto	i2u120_41
  4278  000E9E  EF53  F007         	goto	i2u120_40
  4279  000EA2                     i2u120_41:
  4280  000EA2  EF55  F007         	goto	i2l111
  4281  000EA6                     i2u120_40:
  4282  000EA6  0E00               	movlw	0
  4283  000EA8  6E3A               	movwf	_line_counter^0,c
  4284  000EAA                     i2l111:
  4285  000EAA  0012               	return		;funcret
  4286  000EAC                     __end_of_LCD_Update:
  4287                           	opt callstack 0
  4288                           
  4289 ;; *************** function i2_LCD_Write_Symbol *****************
  4290 ;; Defined at:
  4291 ;;		line 170 in file "LCD.c"
  4292 ;; Parameters:    Size  Location     Type
  4293 ;;  sym             1    wreg     unsigned char 
  4294 ;; Auto vars:     Size  Location     Type
  4295 ;;  sym             1    1[COMRAM] unsigned char 
  4296 ;; Return value:  Size  Location     Type
  4297 ;;                  1    wreg      void 
  4298 ;; Registers used:
  4299 ;;		wreg, status,2, status,0, cstack
  4300 ;; Tracked objects:
  4301 ;;		On entry : 0/0
  4302 ;;		On exit  : 0/0
  4303 ;;		Unchanged: 0/0
  4304 ;; Data sizes:     COMRAM   BANK0   BANK1   BANK2   BANK3   BANK4   BANK5   BANK6   BANK7
  4305 ;;      Params:         0       0       0       0       0       0       0       0       0
  4306 ;;      Locals:         1       0       0       0       0       0       0       0       0
  4307 ;;      Temps:          0       0       0       0       0       0       0       0       0
  4308 ;;      Totals:         1       0       0       0       0       0       0       0       0
  4309 ;;Total ram usage:        1 bytes
  4310 ;; Hardware stack levels used:    1
  4311 ;; Hardware stack levels required when called:    1
  4312 ;; This function calls:
  4313 ;;		i2_LCD_Data_Out
  4314 ;; This function is called by:
  4315 ;;		_LCD_Update
  4316 ;; This function uses a non-reentrant model
  4317 ;;
  4318                           
  4319                           	psect	text20
  4320  0015E0                     __ptext20:
  4321                           	opt callstack 0
  4322  0015E0                     i2_LCD_Write_Symbol:
  4323                           	opt callstack 22
  4324                           
  4325                           ;incstack = 0
  4326                           ;i2LCD_Write_Symbol@sym stored from wreg
  4327  0015E0  6E02               	movwf	i2LCD_Write_Symbol@sym^0,c
  4328  0015E2                     
  4329                           ;LCD.c: 170: static void LCD_Write_Symbol(uint8 sym);LCD.c: 171: {;LCD.c: 173:     (((PO
      +                          RTE))=((PORTE) & ~(1<<(2)))|(1<<(2)));
  4330  0015E2  5084               	movf	132,w,c	;volatile
  4331  0015E4  0BFB               	andlw	251
  4332  0015E6  0904               	iorlw	4
  4333  0015E8  6E84               	movwf	132,c	;volatile
  4334                           
  4335                           ;LCD.c: 175:     (((PORTE))=((PORTE) & ~(1<<(1)))|(0<<(1)));
  4336  0015EA  5084               	movf	132,w,c	;volatile
  4337  0015EC  0BFD               	andlw	253
  4338  0015EE  6E84               	movwf	132,c	;volatile
  4339  0015F0                     
  4340                           ;LCD.c: 179:     LCD_Data_Out((sym>>4));
  4341  0015F0  3802               	swapf	i2LCD_Write_Symbol@sym^0,w,c
  4342  0015F2  0B0F               	andlw	15
  4343  0015F4  ECA2  F00A         	call	i2_LCD_Data_Out
  4344  0015F8                     
  4345                           ;LCD.c: 181:     LCD_Data_Out(sym);
  4346  0015F8  5002               	movf	i2LCD_Write_Symbol@sym^0,w,c
  4347  0015FA  ECA2  F00A         	call	i2_LCD_Data_Out
  4348  0015FE  0012               	return		;funcret
  4349  001600                     __end_ofi2_LCD_Write_Symbol:
  4350                           	opt callstack 0
  4351                           
  4352 ;; *************** function _LCD_SetDDRAM *****************
  4353 ;; Defined at:
  4354 ;;		line 299 in file "LCD.c"
  4355 ;; Parameters:    Size  Location     Type
  4356 ;;  ADDRESS         1    wreg     unsigned char 
  4357 ;; Auto vars:     Size  Location     Type
  4358 ;;  ADDRESS         1    2[COMRAM] unsigned char 
  4359 ;; Return value:  Size  Location     Type
  4360 ;;                  1    wreg      void 
  4361 ;; Registers used:
  4362 ;;		wreg, status,2, status,0, cstack
  4363 ;; Tracked objects:
  4364 ;;		On entry : 0/0
  4365 ;;		On exit  : 0/0
  4366 ;;		Unchanged: 0/0
  4367 ;; Data sizes:     COMRAM   BANK0   BANK1   BANK2   BANK3   BANK4   BANK5   BANK6   BANK7
  4368 ;;      Params:         0       0       0       0       0       0       0       0       0
  4369 ;;      Locals:         1       0       0       0       0       0       0       0       0
  4370 ;;      Temps:          0       0       0       0       0       0       0       0       0
  4371 ;;      Totals:         1       0       0       0       0       0       0       0       0
  4372 ;;Total ram usage:        1 bytes
  4373 ;; Hardware stack levels used:    1
  4374 ;; Hardware stack levels required when called:    2
  4375 ;; This function calls:
  4376 ;;		i2_LCD_Write_Instruction
  4377 ;; This function is called by:
  4378 ;;		_LCD_Update
  4379 ;; This function uses a non-reentrant model
  4380 ;;
  4381                           
  4382                           	psect	text21
  4383  001670                     __ptext21:
  4384                           	opt callstack 0
  4385  001670                     _LCD_SetDDRAM:
  4386                           	opt callstack 21
  4387                           
  4388                           ;incstack = 0
  4389                           ;LCD_SetDDRAM@ADDRESS stored from wreg
  4390  001670  6E03               	movwf	LCD_SetDDRAM@ADDRESS^0,c
  4391  001672                     
  4392                           ;LCD.c: 299: static void LCD_SetDDRAM(uint8 ADDRESS);LCD.c: 300: {;LCD.c: 301:     ADDRE
      +                          SS &= 0x7f;
  4393  001672  9E03               	bcf	LCD_SetDDRAM@ADDRESS^0,7,c
  4394                           
  4395                           ;LCD.c: 302:     ADDRESS |= 0x80;
  4396  001674  8E03               	bsf	LCD_SetDDRAM@ADDRESS^0,7,c
  4397  001676                     
  4398                           ;LCD.c: 303:     LCD_Write_Instruction(ADDRESS);
  4399  001676  5003               	movf	LCD_SetDDRAM@ADDRESS^0,w,c
  4400  001678  EC00  F00B         	call	i2_LCD_Write_Instruction
  4401  00167C  0012               	return		;funcret
  4402  00167E                     __end_of_LCD_SetDDRAM:
  4403                           	opt callstack 0
  4404                           
  4405 ;; *************** function i2_LCD_Write_Instruction *****************
  4406 ;; Defined at:
  4407 ;;		line 208 in file "LCD.c"
  4408 ;; Parameters:    Size  Location     Type
  4409 ;;  inst            1    wreg     enum E3182
  4410 ;; Auto vars:     Size  Location     Type
  4411 ;;  inst            1    1[COMRAM] enum E3182
  4412 ;; Return value:  Size  Location     Type
  4413 ;;                  1    wreg      void 
  4414 ;; Registers used:
  4415 ;;		wreg, status,2, status,0, cstack
  4416 ;; Tracked objects:
  4417 ;;		On entry : 0/0
  4418 ;;		On exit  : 0/0
  4419 ;;		Unchanged: 0/0
  4420 ;; Data sizes:     COMRAM   BANK0   BANK1   BANK2   BANK3   BANK4   BANK5   BANK6   BANK7
  4421 ;;      Params:         0       0       0       0       0       0       0       0       0
  4422 ;;      Locals:         1       0       0       0       0       0       0       0       0
  4423 ;;      Temps:          0       0       0       0       0       0       0       0       0
  4424 ;;      Totals:         1       0       0       0       0       0       0       0       0
  4425 ;;Total ram usage:        1 bytes
  4426 ;; Hardware stack levels used:    1
  4427 ;; Hardware stack levels required when called:    1
  4428 ;; This function calls:
  4429 ;;		i2_LCD_Data_Out
  4430 ;; This function is called by:
  4431 ;;		_LCD_SetDDRAM
  4432 ;; This function uses a non-reentrant model
  4433 ;;
  4434                           
  4435                           	psect	text22
  4436  001600                     __ptext22:
  4437                           	opt callstack 0
  4438  001600                     i2_LCD_Write_Instruction:
  4439                           	opt callstack 21
  4440                           
  4441                           ;incstack = 0
  4442                           ;i2LCD_Write_Instruction@inst stored from wreg
  4443  001600  6E02               	movwf	i2LCD_Write_Instruction@inst^0,c
  4444  001602                     
  4445                           ;LCD.c: 208: static void LCD_Write_Instruction(LCD_Instruction_t inst);LCD.c: 209: {;LCD
      +                          .c: 211:     (((PORTE))=((PORTE) & ~(1<<(2)))|(0<<(2)));
  4446  001602  5084               	movf	132,w,c	;volatile
  4447  001604  0BFB               	andlw	251
  4448  001606  6E84               	movwf	132,c	;volatile
  4449                           
  4450                           ;LCD.c: 213:     (((PORTE))=((PORTE) & ~(1<<(1)))|(0<<(1)));
  4451  001608  5084               	movf	132,w,c	;volatile
  4452  00160A  0BFD               	andlw	253
  4453  00160C  6E84               	movwf	132,c	;volatile
  4454  00160E                     
  4455                           ;LCD.c: 215:     LCD_Data_Out((inst>>4));
  4456  00160E  3802               	swapf	i2LCD_Write_Instruction@inst^0,w,c
  4457  001610  0B0F               	andlw	15
  4458  001612  ECA2  F00A         	call	i2_LCD_Data_Out
  4459  001616                     
  4460                           ;LCD.c: 216:     LCD_Data_Out(inst);
  4461  001616  5002               	movf	i2LCD_Write_Instruction@inst^0,w,c
  4462  001618  ECA2  F00A         	call	i2_LCD_Data_Out
  4463  00161C  0012               	return		;funcret
  4464  00161E                     __end_ofi2_LCD_Write_Instruction:
  4465                           	opt callstack 0
  4466                           
  4467 ;; *************** function i2_LCD_Data_Out *****************
  4468 ;; Defined at:
  4469 ;;		line 230 in file "LCD.c"
  4470 ;; Parameters:    Size  Location     Type
  4471 ;;  byte            1    wreg     unsigned char 
  4472 ;; Auto vars:     Size  Location     Type
  4473 ;;  byte            1    0[COMRAM] unsigned char 
  4474 ;; Return value:  Size  Location     Type
  4475 ;;                  1    wreg      void 
  4476 ;; Registers used:
  4477 ;;		wreg, status,2, status,0
  4478 ;; Tracked objects:
  4479 ;;		On entry : 0/0
  4480 ;;		On exit  : 0/0
  4481 ;;		Unchanged: 0/0
  4482 ;; Data sizes:     COMRAM   BANK0   BANK1   BANK2   BANK3   BANK4   BANK5   BANK6   BANK7
  4483 ;;      Params:         0       0       0       0       0       0       0       0       0
  4484 ;;      Locals:         1       0       0       0       0       0       0       0       0
  4485 ;;      Temps:          0       0       0       0       0       0       0       0       0
  4486 ;;      Totals:         1       0       0       0       0       0       0       0       0
  4487 ;;Total ram usage:        1 bytes
  4488 ;; Hardware stack levels used:    1
  4489 ;; This function calls:
  4490 ;;		Nothing
  4491 ;; This function is called by:
  4492 ;;		i2_LCD_Write_Symbol
  4493 ;;		i2_LCD_Write_Instruction
  4494 ;; This function uses a non-reentrant model
  4495 ;;
  4496                           
  4497                           	psect	text23
  4498  001544                     __ptext23:
  4499                           	opt callstack 0
  4500  001544                     i2_LCD_Data_Out:
  4501                           	opt callstack 22
  4502                           
  4503                           ;incstack = 0
  4504                           ;i2LCD_Data_Out@byte stored from wreg
  4505  001544  6E01               	movwf	i2LCD_Data_Out@byte^0,c
  4506  001546                     
  4507                           ;LCD.c: 230: static void LCD_Data_Out(uint8 byte);LCD.c: 231: {;LCD.c: 234:        (((PO
      +                          RTD))=(((PORTD))&~(0xF<<((1)*4)))); (((PORTD))=(((PORTD))|((byte<<((1)*4))&(0xF<<((1)*4)
      +                          ))));
  4508  001546  5083               	movf	131,w,c	;volatile
  4509  001548  0B0F               	andlw	15
  4510  00154A  6E83               	movwf	131,c	;volatile
  4511  00154C  3801               	swapf	i2LCD_Data_Out@byte^0,w,c
  4512  00154E  0BF0               	andlw	240
  4513  001550  0BF0               	andlw	240
  4514  001552  1083               	iorwf	131,w,c	;volatile
  4515  001554  6E83               	movwf	131,c	;volatile
  4516                           
  4517                           ;LCD.c: 237:        (((PORTE))=((PORTE) & ~(1<<(1)))|(1<<(1)));
  4518  001556  5084               	movf	132,w,c	;volatile
  4519  001558  0BFD               	andlw	253
  4520  00155A  0902               	iorlw	2
  4521  00155C  6E84               	movwf	132,c	;volatile
  4522  00155E                     
  4523                           ;LCD.c: 239:        _delay((unsigned long)((100)*(8000000/4000000.0)));
  4524  00155E  0E42               	movlw	66
  4525  001560                     i2u196_47:
  4526  001560  2EE8               	decfsz	wreg,f,c
  4527  001562  D7FE               	bra	i2u196_47
  4528  001564  D000               	nop2	
  4529  001566                     
  4530                           ;LCD.c: 241:        (((PORTE))=((PORTE) & ~(1<<(1)))|(0<<(1)));
  4531  001566  5084               	movf	132,w,c	;volatile
  4532  001568  0BFD               	andlw	253
  4533  00156A  6E84               	movwf	132,c	;volatile
  4534  00156C                     
  4535                           ;LCD.c: 243:        _delay((unsigned long)((1)*(8000000/4000000.0)));
  4536  00156C  D000               	nop2		;2 cycle nop
  4537  00156E  0012               	return		;funcret
  4538  001570                     __end_ofi2_LCD_Data_Out:
  4539                           	opt callstack 0
  4540  0000                     
  4541                           	psect	rparam
  4542  0000                     
  4543                           	psect	temp
  4544  000045                     btemp:
  4545                           	opt callstack 0
  4546  000045                     	ds	1
  4547  0000                     int$flags	set	btemp
  4548  0000                     wtemp8	set	btemp+1
  4549  0000                     ttemp5	set	btemp+1
  4550  0000                     ttemp6	set	btemp+4
  4551  0000                     ttemp7	set	btemp+8
  4552                           tosu	equ	0xFFF
  4553                           tosh	equ	0xFFE
  4554                           tosl	equ	0xFFD
  4555                           stkptr	equ	0xFFC
  4556                           pclatu	equ	0xFFB
  4557                           pclath	equ	0xFFA
  4558                           pcl	equ	0xFF9
  4559                           tblptru	equ	0xFF8
  4560                           tblptrh	equ	0xFF7
  4561                           tblptrl	equ	0xFF6
  4562                           tablat	equ	0xFF5
  4563                           prodh	equ	0xFF4
  4564                           prodl	equ	0xFF3
  4565                           indf0	equ	0xFEF
  4566                           postinc0	equ	0xFEE
  4567                           postdec0	equ	0xFED
  4568                           preinc0	equ	0xFEC
  4569                           plusw0	equ	0xFEB
  4570                           fsr0h	equ	0xFEA
  4571                           fsr0l	equ	0xFE9
  4572                           wreg	equ	0xFE8
  4573                           indf1	equ	0xFE7
  4574                           postinc1	equ	0xFE6
  4575                           postdec1	equ	0xFE5
  4576                           preinc1	equ	0xFE4
  4577                           plusw1	equ	0xFE3
  4578                           fsr1h	equ	0xFE2
  4579                           fsr1l	equ	0xFE1
  4580                           bsr	equ	0xFE0
  4581                           indf2	equ	0xFDF
  4582                           postinc2	equ	0xFDE
  4583                           postdec2	equ	0xFDD
  4584                           preinc2	equ	0xFDC
  4585                           plusw2	equ	0xFDB
  4586                           fsr2h	equ	0xFDA
  4587                           fsr2l	equ	0xFD9
  4588                           status	equ	0xFD8


Data Sizes:
    Strings     0
    Constant    0
    Data        10
    BSS         260
    Persistent  0
    Stack       0

Auto Spaces:
    Space          Size  Autos    Used
    COMRAM           94     33      68
    BANK0           160      5     160
    BANK1           256     17      97
    BANK2           256      0       0
    BANK3           256      0       0
    BANK4           256      0       0
    BANK5           256      0       0
    BANK6           256      0       0
    BANK7           256      0       0

Pointer List with Targets:

    keypad.KP_O_Pins.dirRegPtr	PTR volatile unsigned char  size(2) Largest target is 1
		 -> TRISD(SFR[1]), TRISC(SFR[1]), TRISB(SFR[1]), 

    keypad.KP_O_Pins.portRegPtr	PTR volatile unsigned char  size(2) Largest target is 1
		 -> PORTC(SFR[1]), PORTB(SFR[1]), PORTD(SFR[1]), 

    keypad.KP_I_Pins.dirRegPtr	PTR volatile unsigned char  size(2) Largest target is 1
		 -> TRISD(SFR[1]), TRISC(SFR[1]), TRISB(SFR[1]), 

    keypad.KP_I_Pins.portRegPtr	PTR volatile unsigned char  size(2) Largest target is 1
		 -> PORTC(SFR[1]), PORTB(SFR[1]), PORTD(SFR[1]), 

    DO_Init@dir	PTR volatile unsigned char  size(2) Largest target is 1
		 -> TRISC(SFR[1]), TRISB(SFR[1]), 

    S45$dirRegPtr	PTR volatile unsigned char  size(2) Largest target is 1
		 -> TRISD(SFR[1]), TRISC(SFR[1]), TRISB(SFR[1]), 

    DOArray.dirRegPtr	PTR volatile unsigned char  size(2) Largest target is 1
		 -> TRISD(SFR[1]), TRISC(SFR[1]), TRISB(SFR[1]), 

    S45$portRegPtr	PTR volatile unsigned char  size(2) Largest target is 1
		 -> PORTC(SFR[1]), PORTB(SFR[1]), PORTD(SFR[1]), 

    DOArray.portRegPtr	PTR volatile unsigned char  size(2) Largest target is 1
		 -> PORTC(SFR[1]), PORTB(SFR[1]), PORTD(SFR[1]), 

    DO_Init@port	PTR volatile unsigned char  size(2) Largest target is 1
		 -> PORTC(SFR[1]), PORTB(SFR[1]), 

    GPIO_Init_Nibble@DirRegAddress	PTR volatile unsigned char  size(2) Largest target is 1
		 -> TRISD(SFR[1]), 

    GPIO_Init_Pin@DirRegAddress	PTR volatile unsigned char  size(2) Largest target is 1
		 -> TRISE(SFR[1]), TRISD(SFR[1]), TRISC(SFR[1]), TRISB(SFR[1]), 


Critical Paths under _main in COMRAM

    None.

Critical Paths under _TMR0_ISR in COMRAM

    _TMR0_ISR->_keypad_Update
    _keypad_Update->_LCD_SetSymbol
    _LCD_SetSymbol->___awdiv
    _LCD_Update->_LCD_SetDDRAM
    i2_LCD_Write_Symbol->i2_LCD_Data_Out
    _LCD_SetDDRAM->i2_LCD_Write_Instruction
    i2_LCD_Write_Instruction->i2_LCD_Data_Out

Critical Paths under _main in BANK0

    _keypad_Init->_GPIO_Init_Pin
    _DO_Init->_GPIO_Init_Pin
    _LCD_Init->_GPIO_Init_Pin
    _LCD_Init_Custom_Sym->_LCD_SetCGRAM
    _LCD_Write_Symbol->_LCD_Data_Out
    _LCD_SetCGRAM->_LCD_Write_Instruction
    _LCD_Write_Instruction->_LCD_Data_Out

Critical Paths under _TMR0_ISR in BANK0

    None.

Critical Paths under _main in BANK1

    _keypad_Init->_GPIO_Init_Pin
    _init->_DO_Init
    _DO_Init->_GPIO_Init_Pin
    _LCD_Init->_LCD_Init_Custom_Sym

Critical Paths under _TMR0_ISR in BANK1

    None.

Critical Paths under _main in BANK2

    None.

Critical Paths under _TMR0_ISR in BANK2

    None.

Critical Paths under _main in BANK3

    None.

Critical Paths under _TMR0_ISR in BANK3

    None.

Critical Paths under _main in BANK4

    None.

Critical Paths under _TMR0_ISR in BANK4

    None.

Critical Paths under _main in BANK5

    None.

Critical Paths under _TMR0_ISR in BANK5

    None.

Critical Paths under _main in BANK6

    None.

Critical Paths under _TMR0_ISR in BANK6

    None.

Critical Paths under _main in BANK7

    None.

Critical Paths under _TMR0_ISR in BANK7

    None.

Call Graph Tables:

 ---------------------------------------------------------------------------------
 (Depth) Function   	        Calls       Base Space   Used Autos Params    Refs
 ---------------------------------------------------------------------------------
 (0) _main                                                 0     0      0   13140
                           _LCD_Init
                           _TMR_Init
                          _TMR_Start
                               _init
                        _keypad_Init
 ---------------------------------------------------------------------------------
 (1) _keypad_Init                                          9     9      0    3023
                                              5 BANK1      9     9      0
                      _GPIO_Init_Pin
 ---------------------------------------------------------------------------------
 (1) _init                                                 0     0      0    4506
                            _DO_Init
 ---------------------------------------------------------------------------------
 (2) _DO_Init                                             12     6      6    4506
                                              5 BANK1     12     6      6
                      _GPIO_Init_Pin
 ---------------------------------------------------------------------------------
 (1) _TMR_Start                                            0     0      0       0
 ---------------------------------------------------------------------------------
 (1) _TMR_Init                                             0     0      0       0
 ---------------------------------------------------------------------------------
 (1) _LCD_Init                                             1     1      0    5611
                                             10 BANK1      1     1      0
                   _GPIO_Init_Nibble
                      _GPIO_Init_Pin
                       _LCD_Data_Out
                _LCD_Init_Custom_Sym
              _LCD_Write_Instruction
 ---------------------------------------------------------------------------------
 (2) _LCD_Init_Custom_Sym                                 10    10      0    1808
                                              0 BANK1     10    10      0
                       _LCD_SetCGRAM
                   _LCD_Write_Symbol
 ---------------------------------------------------------------------------------
 (3) _LCD_Write_Symbol                                     1     1      0      66
                                              1 BANK0      1     1      0
                       _LCD_Data_Out
 ---------------------------------------------------------------------------------
 (3) _LCD_SetCGRAM                                         1     1      0      90
                                              2 BANK0      1     1      0
              _LCD_Write_Instruction
 ---------------------------------------------------------------------------------
 (2) _LCD_Write_Instruction                                1     1      0      66
                                              1 BANK0      1     1      0
                       _LCD_Data_Out
 ---------------------------------------------------------------------------------
 (3) _LCD_Data_Out                                         1     1      0      22
                                              0 BANK0      1     1      0
 ---------------------------------------------------------------------------------
 (2) _GPIO_Init_Pin                                       10     6      4    3023
                                              0 BANK0      5     1      4
                                              0 BANK1      5     5      0
 ---------------------------------------------------------------------------------
 (2) _GPIO_Init_Nibble                                    10     6      4     692
                                              0 BANK0      4     0      4
                                              0 BANK1      6     6      0
 ---------------------------------------------------------------------------------
 Estimated maximum stack depth 3
 ---------------------------------------------------------------------------------
 (Depth) Function   	        Calls       Base Space   Used Autos Params    Refs
 ---------------------------------------------------------------------------------
 (6) _TMR0_ISR                                             6     6      0    6784
                                             27 COMRAM     6     6      0
                      _LCD_SetSymbol
                         _LCD_Update
                      _keypad_Update
 ---------------------------------------------------------------------------------
 (7) _keypad_Update                                       11    11      0    5185
                                             16 COMRAM    11    11      0
                      _LCD_SetSymbol
                             ___wmul
 ---------------------------------------------------------------------------------
 (8) ___wmul                                               6     2      4    3547
                                              0 COMRAM     6     2      4
 ---------------------------------------------------------------------------------
 (8) _LCD_SetSymbol                                        8     6      2    1084
                                              8 COMRAM     8     6      2
                            ___awdiv
 ---------------------------------------------------------------------------------
 (9) ___awdiv                                              8     4      4     604
                                              0 COMRAM     8     4      4
 ---------------------------------------------------------------------------------
 (7) _LCD_Update                                          13    13      0     515
                                              3 COMRAM    13    13      0
                       _LCD_SetDDRAM
                 i2_LCD_Write_Symbol
 ---------------------------------------------------------------------------------
 (8) i2_LCD_Write_Symbol                                   1     1      0      66
                                              1 COMRAM     1     1      0
                     i2_LCD_Data_Out
 ---------------------------------------------------------------------------------
 (8) _LCD_SetDDRAM                                         1     1      0      90
                                              2 COMRAM     1     1      0
            i2_LCD_Write_Instruction
 ---------------------------------------------------------------------------------
 (9) i2_LCD_Write_Instruction                              1     1      0      66
                                              1 COMRAM     1     1      0
                     i2_LCD_Data_Out
 ---------------------------------------------------------------------------------
 (9) i2_LCD_Data_Out                                       1     1      0      22
                                              0 COMRAM     1     1      0
 ---------------------------------------------------------------------------------
 Estimated maximum stack depth 9
 ---------------------------------------------------------------------------------

 Call Graph Graphs:

 _main (ROOT)
   _LCD_Init
     _GPIO_Init_Nibble
     _GPIO_Init_Pin
     _LCD_Data_Out
     _LCD_Init_Custom_Sym
       _LCD_SetCGRAM
         _LCD_Write_Instruction
           _LCD_Data_Out
       _LCD_Write_Symbol
         _LCD_Data_Out
     _LCD_Write_Instruction
       _LCD_Data_Out
   _TMR_Init
   _TMR_Start
   _init
     _DO_Init
       _GPIO_Init_Pin
   _keypad_Init
     _GPIO_Init_Pin

 _TMR0_ISR (ROOT)
   _LCD_SetSymbol
     ___awdiv
   _LCD_Update
     _LCD_SetDDRAM
       i2_LCD_Write_Instruction
         i2_LCD_Data_Out
     i2_LCD_Write_Symbol
       i2_LCD_Data_Out
   _keypad_Update
     _LCD_SetSymbol
       ___awdiv
     ___wmul

 Address spaces:
Name               Size   Autos  Total    Cost      Usage
BIGRAM             7FF      0       0      21        0.0%
EEDATA             100      0       0       0        0.0%
BITBANK7           100      0       0      18        0.0%
BANK7              100      0       0      19        0.0%
BITBANK6           100      0       0      16        0.0%
BANK6              100      0       0      17        0.0%
BITBANK5           100      0       0      14        0.0%
BANK5              100      0       0      15        0.0%
BITBANK4           100      0       0      12        0.0%
BANK4              100      0       0      13        0.0%
BITBANK3           100      0       0      10        0.0%
BANK3              100      0       0      11        0.0%
BITBANK2           100      0       0       8        0.0%
BANK2              100      0       0       9        0.0%
BITBANK1           100      0       0       6        0.0%
BANK1              100     11      61       7       37.9%
BITBANK0            A0      0       0       4        0.0%
BANK0               A0      5      A0       5      100.0%
BITCOMRAM           5E      0       0       0        0.0%
COMRAM              5E     21      44       1       72.3%
BITSFR               0      0       0     200        0.0%
SFR                  0      0       0     200        0.0%
STACK                0      0       0       2        0.0%
NULL                 0      0       0       0        0.0%
ABS                  0      0     145      20        0.0%
DATA                 0      0     145       3        0.0%
CODE                 0      0       0       0        0.0%


Microchip Technology PIC18 Macro Assembler V2.10 build 88905656 
Symbol Table                                                                                   Sat Mar 07 01:19:08 2020

                   ?_LCD_Data_Out 0001                                l30 0F92  
                              l24 119E                                l40 1318  
                              l33 0FD6                                l90 15DE  
                              l84 10C2                                l93 1542  
                              l87 1594                      ___awdiv@sign 0006  
                     __CFG_BOR$ON 000000                       ?_LCD_Update 0001  
             ___wmul@multiplicand 0003                       __CFG_BORV$3 000000  
                    __CFG_CP0$OFF 000000                      __CFG_CP1$OFF 000000  
                    __CFG_CP2$OFF 000000                      __CFG_CP3$OFF 000000  
                     __CFG_LVP$ON 000000                               l140 0C8A  
                             l133 0B6C                               l221 1632  
                             l222 1632                               l143 164C  
                             l137 0C2A                               l227 14C0  
                             l252 09E8                               l190 165E  
                             l176 166E                               _GIE 007F97  
                    __CFG_CPB$OFF 000000                      __CFG_CPD$OFF 000000  
                             _PSA 007EAB                     _LCD_SetSymbol 131A  
                             prod 000FF3                               wreg 000FE8  
                   ?_LCD_SetDDRAM 0001                     ?_LCD_SetCGRAM 0001  
                    __CFG_FOSC$HS 000000                      __CFG_WDT$OFF 000000  
                            l2000 1146                              l2002 114A  
                            l2010 158C                              l2020 0EAC  
                            l2012 163E                              l2100 0B2E  
                            l2030 0F2E                              l2022 0EC6  
                            l2014 1644                              l2006 1574  
                            l2110 0B50                              l2024 0EE0  
                            l2032 0F32                              l2016 1646  
                            l2008 1582                              l2120 0B8C  
                            l2112 0B6E                              l2200 1082  
                            l2034 0F72                              l2026 0EFA  
                            l2018 0EAC                              l2130 0BAE  
                            l2114 0B7E                              l2106 0B38  
                            l2050 09FC                              l2210 10B0  
                            l2202 108A                              l2042 1268  
                            l2036 0F84                              l2028 0F14  
                            l2140 0BEC                              l2132 0BCA  
                            l2116 0B80                              l2108 0B4A  
                            l2060 0A1E                              l2052 0A02  
                            l2212 10B6                              l2204 1090  
                            l2220 1650                              l2044 12AE  
                            l2038 0F98                              l2150 0C0E  
                            l2134 0BDE                              l2126 0B96  
                            l2118 0B86                              l2062 0A24  
                            l2214 10BE                              l2206 10A2  
                            l2222 1658                              l2046 12C4  
                            l2230 0726                              l2152 0C2C  
                            l2136 0BE0                              l2128 0BA8  
                            l2080 0AA4                              l2064 0A40  
                            l2048 09EA                              l2208 10A8  
                            l2216 1660                              l2224 165A  
                            l2240 075C                              l2232 0728  
                            l2154 0C44                              l2146 0BF6  
                            l2138 0BE6                              l2090 0AD4  
                            l2082 0AC4                              l2074 0A70  
                            l2066 0A60                              l2058 0A0C  
                            l2170 0FD8                              l2226 165C  
                            l2218 164E                              l2250 07A6  
                            l2242 0764                              l2234 073A  
                            l2164 0C56                              l2156 0C46  
                            l2148 0C08                              l2092 0AE6  
                            l2084 0ACA                              l2076 0A82  
                            l2068 0A66                              l2180 1036  
                            l2172 1004                              l2228 1460  
                            l2260 07E6                              l2252 07B0  
                            l2244 0768                              l2236 073E  
                            l2166 0C68                              l2158 0C4C  
                            l2094 0AEC                              l2078 0A88  
                            l2190 1060                              l2182 103C  
                            l2174 101A                              l2270 0836  
                            l2262 07FA                              l2254 07B8  
                            l2246 078E                              l2238 0752  
                            l2168 0C6E                              l2096 0B08  
                            l2192 1066                              l2184 104E  
                            l2176 102A                              l2280 0946  
                            l2272 083A                              l2264 0804  
                            l2256 07BC                              l2248 0792  
                            l2098 0B28                              l2194 106E  
                            l2186 1054                              l2178 1030  
                            l2274 084E                              l2266 080C  
                            l2258 07E2                              l2290 162E  
                            l2282 161E                              l2196 1074  
                            l2188 105A                              l2276 08A2  
                            l2268 0810                              l2284 1622  
                            l2198 107C                              l2278 08F4  
                            l2286 1626                              l2288 162A  
                            l1980 1540                              l1990 10C4  
                            l1974 1518                              l1982 15C0  
                            l1992 10DE                              l1976 1532  
                            l1984 15CC                              l1994 10F8  
                            l1978 153A                              l1986 15D6  
                            l1996 1112                              l1988 10C4  
                            l1998 112C                   __end_of_DO_Init 131A  
                            _T0CS 007EAD                              u1600 0EC6  
                            u1601 0EC2                              u1610 0EE0  
                            u1530 10DE                              u1611 0EDC  
                            u1531 10DA                              u1620 0EFA  
                            u1540 10F8                              u1621 0EF6  
                            u1541 10F4                              u1701 09F4  
                            u1630 0F14                              u1550 1112  
                            u1710 0A40                              u1631 0F10  
                            u1551 110E                              u1711 0A3C  
                            u1640 0F2E                              u1560 112C  
                            u1720 0AA4                              u1641 0F2A  
                            u1561 1128                              u1721 0AA0  
                            u1570 1146                              u1730 0B08  
                            u1571 1142                              u1731 0B04  
                            u1660 0F84                              u1740 0B6C  
                            u1804 08B4                              u1661 0F80  
                            u1741 0B68                              u1805 08B0  
                            u1654 0F5A                              u1750 0BCA  
                            u1814 08DA                              u1655 0F56  
                            u1751 0BC6                              u1815 08D6  
                            u1584 115E                              u1760 0C2A  
                            u1824 0906                              u1585 115A  
                            u1761 0C26                              u1825 0902  
                            u1674 0FBE                              u1594 1184  
                            u1770 0C8A                              u1834 092C  
                            u1675 0FBA                              u1595 1180  
                            u1771 0C86                              u1907 1076  
                            u1835 0928                              u1684 12D8  
                            u1844 0988                              u1917 1084  
                            u1685 12D4                              u1845 0984  
                            u1694 12FE                              u1854 09D6  
                            u1927 1098                              u1695 12FA  
                            u1855 09D2                              u1784 0862  
                            u1937 10AA                              u1785 085E  
                            u1794 0888                              u1947 10B8  
                            u1867 1022                              u1795 0884  
                            u1957 1534                              u1877 1044  
                            u1887 1056                              u1897 1068  
                            i2l90 161C                              i2l93 156E  
                            i2l87 15FE                              i2l97 13C6  
                            _RDPU 007C27                              _TMR0 000FD6  
             LCD_Write_Symbol@sym 00FC          ?i2_LCD_Write_Instruction 0001  
               ?_LCD_Write_Symbol 0001                              _main 161E  
                            _init 1460                 ?_GPIO_Init_Nibble 00FB  
                            fsr1h 000FE2                              fsr2h 000FDA  
                            indf1 000FE7                              indf2 000FDF  
                            fsr1l 000FE1                              fsr2l 000FD9  
                            btemp 0045                              prodh 000FF4  
                            prodl 000FF3                              start 000E  
              ??_LCD_Write_Symbol 00FC                     __CFG_IESO$OFF 000000  
              ??_GPIO_Init_Nibble 0150                  ??i2_LCD_Data_Out 0001  
                   __CFG_MCLRE$ON 000000                      ___param_bank 000000  
                   _GPIO_Init_Pin 10C4                    ??_LCD_Data_Out 00FB  
                __end_of_LCD_Init 10C4               GPIO_Init_Nibble@dir 00FE  
                   __CFG_PLLDIV$1 000000                    __CFG_CCP2MX$ON 000000  
                           ?_main 0001                             ?_init 0001  
                 __end_of___awdiv 1264                   ___awdiv@divisor 0003  
                  ?_LCD_SetSymbol 0009                       LCD_Update@i 000F  
                     LCD_Update@j 0010                             _T0PS0 007EA8  
                           _T0PS1 007EA9                             _T0PS2 007EAA  
                           i2l111 0EAA                             i2l107 167C  
                           i2l510 1262                             i2l185 143A  
                           i2l259 0724                             i2l187 1444  
                           i2l279 15BA                   ___awdiv@counter 0005  
                           _PORTB 000F81                             _PORTC 000F82  
                           _PORTD 000F83                             _PORTE 000F84  
                  ??_LCD_SetDDRAM 0003                    ??_LCD_SetCGRAM 00FD  
                   __CFG_USBDIV$1 000000                             _TRISA 000F92  
                           _TRISB 000F93                             _TRISC 000F94  
                           _TRISD 000F95                             _TRISE 000F96  
                   __CFG_PWRT$OFF 000000                     __CFG_WRT0$OFF 000000  
                   __CFG_WRT1$OFF 000000                     __CFG_WRT2$OFF 000000  
                   __CFG_WRT3$OFF 000000                    __CFG_EBTR0$OFF 000000  
                  __CFG_FCMEN$OFF 000000                    __CFG_EBTR1$OFF 000000  
                  __CFG_EBTR2$OFF 000000                    __CFG_EBTR3$OFF 000000  
                __end_of_TMR0_ISR 1460                     __CFG_WRTB$OFF 000000  
                   __CFG_WRTC$OFF 000000                      ?_keypad_Init 0001  
                   __CFG_WRTD$OFF 000000                    __CFG_EBTRB$OFF 000000  
                           tablat 000FF5                  __end_of_TMR_Init 1670  
                           plusw1 000FE3                             plusw2 000FDB  
             __size_of_LCD_Update 0220                             ttemp5 0046  
                           ttemp6 0049                             ttemp7 004D  
                           status 000FD8                             wtemp8 0046  
                  __CFG_ICPRT$OFF 000000                    __CFG_PBADEN$ON 000000  
              __size_of_TMR_Start 0012                    ?_GPIO_Init_Pin 00FB  
                 __initialization 14C2                      __end_of_main 163A  
                    __end_of_init 14C2                            ??_main 0100  
                          ??_init 0100                     __activetblptr 000002  
                       ??_DO_Init 015B   __end_ofi2_LCD_Write_Instruction 161E  
              Keypad@tick_counter 0037        GPIO_Init_Pin@DirRegAddress 00FB  
                          _T08BIT 007EAE                  ___awdiv@dividend 0001  
                          i2l1600 1202                            i2l2312 05C0  
                          i2l1610 1236                            i2l1602 1210  
                          i2l1612 123C                            i2l1604 1216  
                          i2l1622 1602                            i2l1606 122C  
                          i2l1614 1242                            i2l1552 1546  
                          i2l1624 160E                            i2l1616 1252  
                          i2l1608 1234                            i2l1800 0214  
                          i2l1554 155E                            i2l1626 1616  
                          i2l1730 0C8C                            i2l1618 125A  
                          i2l1810 02B0                            i2l1556 1566  
                          i2l1732 0C90                            i2l1580 11A4  
                          i2l1660 132C                            i2l1820 040C  
                          i2l1812 02F4                            i2l1558 156C  
                          i2l1670 1676                            i2l1734 0C98  
                          i2l1590 11D4                            i2l1582 11B2  
                          i2l1822 0458                            i2l1814 0338  
                          i2l1806 0220                            i2l1680 15F0  
                          i2l1760 0DBE                            i2l1752 0CFE  
                          i2l1744 0CBC                            i2l1592 11D8  
                          i2l1584 11BA                            i2l1664 1340  
                          i2l1672 1596                            i2l1840 0652  
                          i2l1824 049C                            i2l1816 0384  
                          i2l1808 0264                            i2l1832 0570  
                          i2l1682 15F8                            i2l1770 0E70  
                          i2l1762 0E18                            i2l1754 0D6A  
                          i2l1746 0CFA                            i2l1738 0CB0  
                          i2l1594 11E0                            i2l1586 11BE  
                          i2l1578 11A0                            i2l1666 1364  
                          i2l1658 131C                            i2l1674 15B2  
                          i2l1842 066E                            i2l1826 04E0  
                          i2l1818 03C8                            i2l1834 05E6  
                          i2l1930 13F2                            i2l1668 1672  
                          i2l1780 0EA6                            i2l1764 0E1A  
                          i2l1756 0D86                            i2l1772 0E80  
                          i2l1596 11F2                            i2l1588 11CC  
                          i2l1844 070C                            i2l1836 0632  
                          i2l1828 052C                            i2l1940 1436  
                          i2l1932 1408                            i2l1924 13E2  
                          i2l1678 15E2                            i2l1774 0E82  
                          i2l1766 0E2C                            i2l1758 0D8C  
                          i2l1598 11FA                            i2l1846 070E  
                          i2l1838 064E                            i2l1782 0012  
                          i2l1942 143C                            i2l1934 1410  
                          i2l1926 13EA                            i2l1776 0E92  
                          i2l1768 0E6E                            i2l1848 0720  
                          i2l1784 0028                            i2l1936 141E  
                          i2l1928 13EE                            i2l1778 0E94  
                          i2l1794 00D6                            i2l1938 1422  
                          i2l1796 01F4                            i2l1788 00CA  
                          i2l1798 01F8                            _TMR0IE 007F95  
                          _TMR0IF 007F92                            _TMR0ON 007EAF  
                  __CFG_XINST$OFF 000000                       DO_Init@pinN 0159  
                     DO_Init@port 0155                            ___wmul 1596  
                       ??___awdiv 0005                    __CFG_STVREN$ON 000000  
                          _keypad 00D8                            clear_0 14E8  
                          clear_1 14F4                            clear_2 1500  
                 ??_LCD_SetSymbol 000B                  ___awdiv@quotient 0007  
                    __pdataCOMRAM 003B                 __end_of_TMR_Start 1660  
                          tblptrh 000FF7                            tblptrl 000FF6  
                          tblptru 000FF8              __end_of_LCD_Data_Out 1544  
                      __accesstop 0060            __size_of_keypad_Update 0714  
         __end_of__initialization 1506                         ?_LCD_Init 0001  
                 ??_GPIO_Init_Pin 0150                     ___rparam_used 000001  
                GPIO_Init_Pin@dir 00FE              __end_of_LCD_SetDDRAM 167E  
            __end_of_LCD_SetCGRAM 164E       __end_of_LCD_Init_Custom_Sym 0C8C  
                  __pcstackCOMRAM 0001                         ?_TMR0_ISR 0001  
           _lines_offset_adresses 0043                      ??_LCD_Update 0004  
     __size_ofi2_LCD_Write_Symbol 0020       i2LCD_Write_Instruction@inst 0002  
                       ?_TMR_Init 0001                         DO_Init@DO 0160  
            __size_of_keypad_Init 02C4                        __pbssBANK0 0060  
                      __pbssBANK1 0100                        ??_LCD_Init 015A  
              __end_of_LCD_Update 0EAC                           ?___wmul 0001  
                      ??_TMR0_ISR 001C  __size_ofi2_LCD_Write_Instruction 001E  
           _LCD_Write_Instruction 15BC         __size_of_LCD_Write_Symbol 0026  
                   _keypad_Update 0012         __size_of_GPIO_Init_Nibble 012C  
                      ??_TMR_Init 00FB                           _DOArray 0022  
                         _DO_Init 1264     GPIO_Init_Nibble@DirRegAddress 00FB  
                         i2u92_40 11B2                           i2u92_41 11AE  
                         i2u93_40 11CC                           i2u93_41 11C8  
                         i2u94_40 11F2                           i2u94_41 11EE  
                         i2u95_40 1210                           i2u95_41 120C  
                         i2u96_40 122C                           i2u96_41 1228  
      GPIO_Init_Nibble@nibble_num 00FD                           i2u97_40 1252  
                         i2u97_41 124E                   __CFG_VREGEN$OFF 000000  
                LCD_Data_Out@byte 00FB               _GPIO_Init_Nibble$44 0154  
                         __Hparam 0000                           __Lparam 0000  
                         ___awdiv 11A0                      DO_Init@state 015A  
                 __size_of___wmul 0026                    ?_keypad_Update 0001  
                         __pcinit 14C2                           __ramtop 0800  
                         __ptext0 161E                           __ptext1 0726  
                         __ptext2 1460                           __ptext3 1264  
                         __ptext4 164E                           __ptext5 1660  
                         __ptext6 0FD8                           __ptext7 09EA  
                         __ptext8 1570                           __ptext9 163A  
           __size_of_LCD_Data_Out 0030                    __pintcode_body 13C8  
            end_of_initialization 1506             __size_of_LCD_SetDDRAM 000E  
           __size_of_LCD_SetCGRAM 0014                     __Lmediumconst 0000  
                         int_func 13C8            ?_LCD_Write_Instruction 0001  
                         postdec1 000FE5                           postdec2 000FDD  
                         postinc0 000FEE                           postinc1 000FE6  
                         postinc2 000FDE                      _LCD_Data_Out 1514  
         __size_ofi2_LCD_Data_Out 002C                      _LCD_SetDDRAM 1670  
                    _LCD_SetCGRAM 163A                         _TMR_Start 164E  
         GPIO_Init_Pin@pin_number 00FD                 __size_of_LCD_Init 00EC  
         i2_LCD_Write_Instruction 1600                   ??_keypad_Update 0011  
                  __end_of___wmul 15BC                  _LCD_Write_Symbol 1570  
                   __pidataCOMRAM 167E                 __size_of_TMR0_ISR 1458  
                _GPIO_Init_Nibble 0EAC             __end_of_LCD_SetSymbol 13C8  
             start_initialization 14C2                 __size_of_TMR_Init 0010  
                 TMR0_ISR@counter 0031                  LCD_SetSymbol@row 0009  
                LCD_SetSymbol@sym 0010               LCD_SetSymbol@column 000A  
                      ?_TMR_Start 0001             __end_of_GPIO_Init_Pin 11A0  
                      DO_Init@dir 0157        __end_ofi2_LCD_Write_Symbol 1600  
                        ??___wmul 0005                  __CFG_LPT1OSC$OFF 000000  
    __size_of_LCD_Init_Custom_Sym 02A2                    _current_column 0038  
                     __pbssCOMRAM 0022                          ?_DO_Init 0155  
                   __pcstackBANK0 00FB                     __pcstackBANK1 0150  
                   ??_keypad_Init 0155                     TMR0_ISR@index 0039  
                    _line_counter 003A         ??i2_LCD_Write_Instruction 0002  
                       __pintcode 0008                          ?___awdiv 0001  
                  i2_LCD_Data_Out 1544                 LCD_Update@address 000D  
                     ??_TMR_Start 00FB               __end_of_keypad_Init 09EA  
                        _LCD_Init 0FD8                    ___wmul@product 0005  
               LCD_Update@updated 000E           ??_LCD_Write_Instruction 00FC  
                        i2u110_44 1380                          i2u110_45 137A  
                        i2u111_40 0CAC                          i2u111_41 0CA8  
                        i2u120_40 0EA6                          i2u112_40 0CFA  
                        i2u120_41 0EA2                          i2u112_41 0CF6  
                        i2u121_40 0028                          i2u121_41 0024  
                        i2u113_44 0D4A                          i2u113_45 0D44  
                        i2u114_40 0D6A                          i2u130_40 040C  
                        i2u114_41 0D66                          i2u130_41 0408  
                        i2u122_44 006A                          i2u122_45 0066  
                        i2u131_40 0458                          i2u131_41 0454  
                        i2u115_44 0DD6                          i2u123_44 00B6  
                        i2u115_45 0DD0                          i2u123_45 00B2  
                        i2u116_40 0E2C                          i2u108_40 132C  
                        i2u132_40 04E0                          i2u116_41 0E28  
                        i2u108_41 1328                          i2u132_41 04DC  
                        i2u124_44 01E8                          i2u124_45 01E4  
                        i2u117_40 0E6A                          i2u109_40 133C  
                        i2u133_40 052C                          i2u125_40 0214  
                        i2u117_41 0E66                          i2u109_41 1338  
                        i2u133_41 0528                          i2u125_41 0210  
                        i2u118_40 0E80                          i2u134_40 0632  
                        i2u126_40 0264                          i2u118_41 0E7C  
                        i2u134_41 062E                          i2u126_41 0260  
                        i2u119_40 0E92                          i2u135_40 066E  
                        i2u127_40 02B0                          i2u151_40 1408  
                        i2u119_41 0E8E                          i2u135_41 066A  
                        i2u127_41 02AC                          i2u151_41 1404  
                        i2u128_40 0338                          i2u152_40 1436  
                        i2u128_41 0334                          i2u152_41 1432  
                        i2u136_44 06B0                          i2u136_45 06AC  
                        i2u129_40 0384                          i2u129_41 0380  
                        i2u137_44 06FC                          i2u137_45 06F8  
                        i2u138_40 0720                          i2u138_41 071C  
                        i2u196_47 1560                i2LCD_Data_Out@byte 0001  
        LCD_Init_Custom_Sym@F3257 003B                  __CFG_WDTPS$32768 000000  
                        _TMR0_ISR 0008            __end_ofi2_LCD_Data_Out 1570  
                        _TMR_Init 1660                 ___wmul@multiplier 0001  
             LCD_SetDDRAM@ADDRESS 0003                  __size_of_DO_Init 00B6  
                       copy_data0 14D6          __end_of_LCD_Write_Symbol 1596  
        __end_of_GPIO_Init_Nibble 0FD8               LCD_SetCGRAM@ADDRESS 00FD  
                        __Hrparam 0000                   _LCD_Data_Buffer 0100  
                        __Lrparam 0000                   ?i2_LCD_Data_Out 0001  
                __size_of___awdiv 00C4         LCD_Write_Instruction@inst 00FC  
                     _keypad_Init 0726                          __ptext10 15BC  
                        __ptext11 1514                          __ptext20 15E0  
                        __ptext12 10C4                          __ptext21 1670  
                        __ptext13 0EAC                          __ptext22 1600  
                        __ptext23 1544                          __ptext15 0012  
                        __ptext16 1596                          __ptext17 131A  
                        __ptext18 11A0                          __ptext19 0C8C  
           i2LCD_Write_Symbol@sym 0002                      _tick_counter 0035  
                   __size_of_main 001C               _LCD_Init_Custom_Sym 09EA  
                   __size_of_init 0062                          int$flags 0045  
         LCD_Init_Custom_Sym@data 0150             __end_of_keypad_Update 0726  
                      _LCD_Update 0C8C              ?_LCD_Init_Custom_Sym 0001  
           __CFG_CPUDIV$OSC1_PLL2 000000                i2_LCD_Write_Symbol 15E0  
                        intlevel2 0000               ?i2_LCD_Write_Symbol 0001  
                     _tempCounter 0033            __size_of_LCD_SetSymbol 00AE  
                     _KP_Btn_Data 00B4                    keypad_Update@i 001A  
            ??i2_LCD_Write_Symbol 0002             ??_LCD_Init_Custom_Sym 00FE  
          __size_of_GPIO_Init_Pin 00DC              LCD_Init_Custom_Sym@i 0158  
  __size_of_LCD_Write_Instruction 0024     __end_of_LCD_Write_Instruction 15E0  
                     _update_flag 0060  
